LX51 LINKER/LOCATER V4.66.1.0                                                           09/21/2015  00:52:51  PAGE 1


LX51 LINKER/LOCATER V4.66.1.0, INVOKED BY:
C:\KEIL_V5\C51\BIN\LX51.EXE .\output\STARTUP.obj, .\output\demo.obj, .\output\GPIO.obj, .\output\USART.obj, .\output\ADC
>> .obj, .\output\delay.obj, .\output\NRF24L01.obj, .\output\spi.obj, .\output\12864.obj, .\output\eInterrupt.obj, .\out
>> put\menu.obj TO .\output\demo PRINT (.\output\demo.map) REMOVEUNUSED


CPU MODE:     8051 MODE
MEMORY MODEL: LARGE WITH FLOATING POINT ARITHMETIC


INPUT MODULES INCLUDED:
  .\output\STARTUP.obj (?C_STARTUP)
         COMMENT TYPE 1: A51 / ASM51 Assembler
  .\output\demo.obj (DEMO)
         COMMENT TYPE 0: C51 V9.52.0.0
  .\output\GPIO.obj (GPIO)
         COMMENT TYPE 0: C51 V9.52.0.0
  .\output\USART.obj (USART)
         COMMENT TYPE 0: C51 V9.52.0.0
  .\output\ADC.obj (ADC)
         COMMENT TYPE 0: C51 V9.52.0.0
  .\output\delay.obj (DELAY)
         COMMENT TYPE 0: C51 V9.52.0.0
  .\output\NRF24L01.obj (NRF24L01)
         COMMENT TYPE 0: C51 V9.52.0.0
  .\output\spi.obj (SPI)
         COMMENT TYPE 0: C51 V9.52.0.0
  .\output\12864.obj (12864)
         COMMENT TYPE 0: C51 V9.52.0.0
  .\output\eInterrupt.obj (EINTERRUPT)
         COMMENT TYPE 0: C51 V9.52.0.0
  .\output\menu.obj (MENU)
         COMMENT TYPE 0: C51 V9.52.0.0
  C:\KEIL_V5\C51\LIB\C51FPL.LIB (?C?FPADD)
         COMMENT TYPE 1: A51 / ASM51 Assembler
  C:\KEIL_V5\C51\LIB\C51FPL.LIB (?C?FPDIV)
         COMMENT TYPE 1: A51 / ASM51 Assembler
  C:\KEIL_V5\C51\LIB\C51FPL.LIB (?C?FCAST)
         COMMENT TYPE 1: A51 / ASM51 Assembler
  C:\KEIL_V5\C51\LIB\C51FPL.LIB (?C?CASTF)
         COMMENT TYPE 1: A51 / ASM51 Assembler
  C:\KEIL_V5\C51\LIB\C51FPL.LIB (PRINTF)
         COMMENT TYPE 1: A51 / ASM51 Assembler
  C:\KEIL_V5\C51\LIB\C51FPL.LIB (?C?FPGETOPN)
         COMMENT TYPE 1: A51 / ASM51 Assembler
  C:\KEIL_V5\C51\LIB\C51FPL.LIB (?C?FPROUND)
         COMMENT TYPE 1: A51 / ASM51 Assembler
  C:\KEIL_V5\C51\LIB\C51FPL.LIB (?C?FPCONVERT)
         COMMENT TYPE 1: A51 / ASM51 Assembler
  C:\KEIL_V5\C51\LIB\C51FPL.LIB (?C?FPMUL)
         COMMENT TYPE 1: A51 / ASM51 Assembler
  C:\KEIL_V5\C51\LIB\C51FPL.LIB (?C?FTNPWR)
         COMMENT TYPE 1: A51 / ASM51 Assembler
  C:\KEIL_V5\C51\LIB\C51L.LIB (?C_INIT)
         COMMENT TYPE 1: A51 / ASM51 Assembler
  C:\KEIL_V5\C51\LIB\C51L.LIB (?C?COPY)
         COMMENT TYPE 1: A51 / ASM51 Assembler
  C:\KEIL_V5\C51\LIB\C51L.LIB (?C?CLDPTR)
         COMMENT TYPE 1: A51 / ASM51 Assembler
  C:\KEIL_V5\C51\LIB\C51L.LIB (?C?CLDOPTR)
         COMMENT TYPE 1: A51 / ASM51 Assembler
  C:\KEIL_V5\C51\LIB\C51L.LIB (?C?CSTPTR)
         COMMENT TYPE 1: A51 / ASM51 Assembler
  C:\KEIL_V5\C51\LIB\C51L.LIB (?C?CSTOPTR)
         COMMENT TYPE 1: A51 / ASM51 Assembler
  C:\KEIL_V5\C51\LIB\C51L.LIB (?C?IMUL)
LX51 LINKER/LOCATER V4.66.1.0                                                         09/21/2015  00:52:51  PAGE 2


         COMMENT TYPE 1: A51 / ASM51 Assembler
  C:\KEIL_V5\C51\LIB\C51L.LIB (?C?SIDIV)
         COMMENT TYPE 1: A51 / ASM51 Assembler
  C:\KEIL_V5\C51\LIB\C51L.LIB (?C?IILDX)
         COMMENT TYPE 1: A51 / ASM51 Assembler
  C:\KEIL_V5\C51\LIB\C51L.LIB (?C?ILDIX)
         COMMENT TYPE 1: A51 / ASM51 Assembler
  C:\KEIL_V5\C51\LIB\C51L.LIB (?C?LMUL)
         COMMENT TYPE 1: A51 / ASM51 Assembler
  C:\KEIL_V5\C51\LIB\C51L.LIB (?C?ULDIV)
         COMMENT TYPE 1: A51 / ASM51 Assembler
  C:\KEIL_V5\C51\LIB\C51L.LIB (?C?SLDIV)
         COMMENT TYPE 1: A51 / ASM51 Assembler
  C:\KEIL_V5\C51\LIB\C51L.LIB (?C?LNEG)
         COMMENT TYPE 1: A51 / ASM51 Assembler
  C:\KEIL_V5\C51\LIB\C51L.LIB (?C?ULCMP)
         COMMENT TYPE 1: A51 / ASM51 Assembler
  C:\KEIL_V5\C51\LIB\C51L.LIB (?C?ULSHR)
         COMMENT TYPE 1: A51 / ASM51 Assembler
  C:\KEIL_V5\C51\LIB\C51L.LIB (?C?LILDXDATA)
         COMMENT TYPE 1: A51 / ASM51 Assembler
  C:\KEIL_V5\C51\LIB\C51L.LIB (?C?LSTXDATA)
         COMMENT TYPE 1: A51 / ASM51 Assembler
  C:\KEIL_V5\C51\LIB\C51L.LIB (?C?PLDIXDATA)
         COMMENT TYPE 1: A51 / ASM51 Assembler
  C:\KEIL_V5\C51\LIB\C51L.LIB (?C?PSTXDATA)
         COMMENT TYPE 1: A51 / ASM51 Assembler
  C:\KEIL_V5\C51\LIB\C51L.LIB (?C?CCASE)
         COMMENT TYPE 1: A51 / ASM51 Assembler
  C:\KEIL_V5\C51\LIB\C51L.LIB (?C?MEMSET)
         COMMENT TYPE 1: A51 / ASM51 Assembler
  C:\KEIL_V5\C51\LIB\C51L.LIB (?C?UIDIV)
         COMMENT TYPE 1: A51 / ASM51 Assembler


ACTIVE MEMORY CLASSES OF MODULE:  .\output\demo (?C_STARTUP)

BASE        START       END         USED      MEMORY CLASS
==========================================================
C:000000H   C:000000H   C:00FFFFH   0030C0H   CODE
I:000000H   I:000000H   I:0000FFH   000013H   IDATA
X:000000H   X:000000H   X:00FFFFH   00017BH   XDATA
I:000000H   I:000000H   I:00007FH   000016H   DATA
C:000000H   C:000000H   C:00FFFFH   0006FAH   CONST
I:000020H.0 I:000020H.0 I:00002FH.7 000003H.5 BIT


MEMORY MAP OF MODULE:  .\output\demo (?C_STARTUP)


START     STOP      LENGTH    ALIGN  RELOC    MEMORY CLASS   SEGMENT NAME
=========================================================================

* * * * * * * * * * *   D A T A   M E M O R Y   * * * * * * * * * * * * *
000000H   000007H   000008H   ---    AT..     DATA           "REG BANK 0"
000008H   00000DH   000006H   BYTE   UNIT     DATA           ?DT?DEMO
00000EH   000012H   000005H   BYTE   UNIT     DATA           _DATA_GROUP_
000013H   00001FH   00000DH   ---    ---      **GAP**
000020H   000021H   000002H   BYTE   BITADDR  DATA           ?BA?DEMO
000022H   000022H   000001H   BYTE   BITADDR  DATA           ?BA?NRF24L01
000023H.0 000024H.7 000002H.0 BIT    UNIT     BIT            ?BI?USART
000025H.0 000026H.4 000001H.5 BIT    UNIT     BIT            _BIT_GROUP_
000026H.5 000026H   000000H.3 ---    ---      **GAP**
000027H   000038H   000012H   BYTE   UNIT     IDATA          ?ID?DEMO
000039H   000039H   000001H   BYTE   UNIT     IDATA          ?STACK
LX51 LINKER/LOCATER V4.66.1.0                                                         09/21/2015  00:52:51  PAGE 3



* * * * * * * * * * *   C O D E   M E M O R Y   * * * * * * * * * * * * *
000000H   000002H   000003H   ---    OFFS..   CODE           ?CO??C_STARTUP?0
000003H   00000AH   000008H   BYTE   UNIT     CODE           ?PR?_SPISETGROUP?SPI
00000BH   00000DH   000003H   BYTE   OFFS..   CODE           ?DEMO?0000B
00000EH   000020H   000013H   BYTE   UNIT     CODE           ?PR?_PUTCHAR?USART
000021H   000022H   000002H   ---    ---      **GAP**
000023H   000025H   000003H   BYTE   OFFS..   CODE           ?USART?00023
000026H   000041H   00001CH   BYTE   UNIT     CODE           ?PR?_ANALOGSTART?ADC
000042H   000042H   000001H   ---    ---      **GAP**
000043H   000045H   000003H   BYTE   OFFS..   CODE           ?USART?00043
000046H   000089H   000044H   BYTE   UNIT     CODE           ?PR?SHOWTHROATTEN?DEMO
00008AH   00008AH   000001H   ---    ---      **GAP**
00008BH   00008DH   000003H   BYTE   OFFS..   CODE           ?USART?0008B
00008EH   000091H   000004H   BYTE   UNIT     CODE           ?PR?_DELAY_US?DELAY
000092H   000092H   000001H   ---    ---      **GAP**
000093H   000095H   000003H   BYTE   OFFS..   CODE           ?USART?00093
000096H   0009DFH   00094AH   BYTE   UNIT     CODE           ?C?LIB_CODE
0009E0H   000E62H   000483H   BYTE   UNIT     CODE           ?PR?PRINTF?PRINTF
000E63H   001179H   000317H   BYTE   UNIT     CODE           ?PR?MAIN?DEMO
00117AH   0013DEH   000265H   BYTE   UNIT     CODE           ?PR?_SERIALBEGIN?USART
0013DFH   001602H   000224H   BYTE   UNIT     CODE           ?PR?_TONE?GPIO
001603H   0017FFH   0001FDH   BYTE   UNIT     CODE           ?PR?MENU_CHOOSE?DEMO
001800H   0019C8H   0001C9H   BYTE   UNIT     CODE           ?PR?_SHOWDATA_MENU?DEMO
0019C9H   001B60H   000198H   BYTE   UNIT     CODE           ?PR?SMALLADJUST?DEMO
001B61H   001CE6H   000186H   BYTE   UNIT     CODE           ?PR?_SHOWSTATUS_MENU?DEMO
001CE7H   001E19H   000133H   BYTE   UNIT     CODE           ?PR?PRINTACC?DEMO
001E1AH   001F41H   000128H   BYTE   UNIT     CODE           ?PR?CHOOSE_MODE?DEMO
001F42H   00205BH   00011AH   BYTE   UNIT     CODE           ?PR?_PUTBUF?USART
00205CH   002169H   00010EH   BYTE   UNIT     CODE           ?CO?DEMO
00216AH   002277H   00010EH   BYTE   UNIT     CODE           ?PR?_DISPLAY_STRING_8X16?12864
002278H   00237DH   000106H   BYTE   UNIT     CODE           ?PR?PININIT?DEMO
00237EH   002465H   0000E8H   BYTE   UNIT     CODE           ?PR?_PINMODE?GPIO
002466H   002545H   0000E0H   BYTE   UNIT     CODE           ?PR?PRINTGYO?DEMO
002546H   0025FEH   0000B9H   BYTE   UNIT     CODE           ?PR?PRINTPWM?DEMO
0025FFH   002698H   00009AH   BYTE   UNIT     CODE           ?PR?INITIAL_LCD?12864
002699H   00272CH   000094H   BYTE   UNIT     CODE           ?PR?_DIGITALWRITE?GPIO
00272DH   0027BFH   000093H   BYTE   UNIT     CODE           ?PR?_DIGITALREAD?GPIO
0027C0H   00284BH   00008CH   BYTE   UNIT     CODE           ?C_C51STARTUP
00284CH   0028D7H   00008CH   BYTE   UNIT     CODE           ?PR?TIMER0_INT?DEMO
0028D8H   002950H   000079H   BYTE   UNIT     CODE           ?PR?SERIAL2?USART
002951H   0029C9H   000079H   BYTE   UNIT     CODE           ?PR?SERIAL3?USART
0029CAH   002A42H   000079H   BYTE   UNIT     CODE           ?PR?SERIAL4?USART
002A43H   002AB5H   000073H   BYTE   UNIT     CODE           ?C_INITSEG
002AB6H   002B26H   000071H   BYTE   UNIT     CODE           ?PR?_SPI_RW?NRF24L01
002B27H   002B76H   000050H   BYTE   UNIT     CODE           ?PR?SERIAL?USART
002B77H   002BC2H   00004CH   BYTE   UNIT     CODE           ?PR?_NRF24L01_RXPACKET?NRF24L01
002BC3H   002C0DH   00004BH   BYTE   UNIT     CODE           ?PR?INIT_NRF24L01?NRF24L01
002C0EH   002C58H   00004BH   BYTE   UNIT     CODE           ?PR?_SETHIGHPOLITY?EINTERRUPT
002C59H   002C9FH   000047H   BYTE   UNIT     CODE           ?PR?SHOWLOGO?DEMO
002CA0H   002CE6H   000047H   BYTE   UNIT     CODE           ?PR?MAIN_MENU?DEMO
002CE7H   002D2AH   000044H   BYTE   UNIT     CODE           ?C?LDIV
002D2BH   002D6DH   000043H   BYTE   UNIT     CODE           ?PR?CLEAR_SCREEN?12864
002D6EH   002DACH   00003FH   BYTE   UNIT     CODE           ?PR?_LCD_ADDRESS?12864
002DADH   002DEBH   00003FH   BYTE   UNIT     CODE           ?PR?_TRANSFER_DATA?12864
002DECH   002E27H   00003CH   BYTE   UNIT     CODE           ?PR?_NOTONE?GPIO
002E28H   002E61H   00003AH   BYTE   UNIT     CODE           ?PR?_CLEAR_GB?MENU
002E62H   002E9AH   000039H   BYTE   UNIT     CODE           ?PR?_TIMER0_ATTACHINTERRUPT?EINTERRUPT
002E9BH   002ECFH   000035H   BYTE   UNIT     CODE           ?PR?_SPI_READ_BUF?NRF24L01
002ED0H   002F02H   000033H   BYTE   UNIT     CODE           ?PR?CHOOSE_MENU?DEMO
002F03H   002F35H   000033H   BYTE   UNIT     CODE           ?PR?_SPI_WRITE_BUF?NRF24L01
002F36H   002F66H   000031H   BYTE   UNIT     CODE           ?PR?SHOWCHOICE?DEMO
002F67H   002F96H   000030H   BYTE   UNIT     CODE           ?PR?_SPI_READ?NRF24L01
002F97H   002FBFH   000029H   BYTE   UNIT     CODE           ?PR?_NRF24L01_TXPACKET?NRF24L01
002FC0H   002FE1H   000022H   BYTE   UNIT     CODE           ?PR?_ANALOGBEGIN?ADC
LX51 LINKER/LOCATER V4.66.1.0                                                         09/21/2015  00:52:51  PAGE 4


002FE2H   003003H   000022H   BYTE   UNIT     CODE           ?PR?_DELAY_MS?DELAY
003004H   003023H   000020H   BYTE   UNIT     CODE           ?PR?ANALOGRESULT?ADC
003024H   00303FH   00001CH   BYTE   UNIT     CODE           ?PR?_ANALOGREAD?ADC
003040H   00305AH   00001BH   BYTE   UNIT     CODE           ?PR?_TRANSFER_COMMAND?12864
00305BH   00306BH   000011H   BYTE   UNIT     CODE           ?PR?_SPI_RW_REG?NRF24L01
00306CH   003079H   00000EH   BYTE   UNIT     CODE           ?PR?_SPISETDATAMODE?SPI
00307AH   003087H   00000EH   BYTE   UNIT     CODE           ?PR?_DISPLAY_GB?MENU
003088H   003094H   00000DH   BYTE   UNIT     CODE           ?PR?_SPITRANSFER?SPI
003095H   0030A0H   00000CH   BYTE   UNIT     CODE           ?PR?SETRX_MODE?NRF24L01
0030A1H   0030ACH   00000CH   BYTE   UNIT     CODE           ?PR?_SPISETCLOCKDIVIDER?SPI
0030ADH   0030B7H   00000BH   BYTE   UNIT     CODE           ?PR?_SPISETBITORDER?SPI
0030B8H   0030C1H   00000AH   BYTE   UNIT     CODE           ?PR?SPIBEGIN?SPI
0030C2H   0030C4H   000003H   BYTE   UNIT     CODE           ?CO?MENU
0030C5H   0036B4H   0005F0H   BYTE   UNIT     CONST          ?CO?12864
0036B5H   0037B4H   000100H   BYTE   UNIT     CONST          ?CO?GPIO
0037B5H   0037BEH   00000AH   BYTE   UNIT     CONST          ?CO?NRF24L01

* * * * * * * * * * *  X D A T A   M E M O R Y  * * * * * * * * * * * * *
000000H   0000D1H   0000D2H   BYTE   UNIT     XDATA          ?XD?USART
0000D2H   00012DH   00005CH   BYTE   UNIT     XDATA          ?XD?DEMO
00012EH   000176H   000049H   BYTE   UNIT     XDATA          _XDATA_GROUP_
000177H   00017AH   000004H   BYTE   UNIT     XDATA          ?XD?12864

* * * * * * * * *   R E M O V E D     S E G M E N T S   * * * * * * * *
   *DEL*:           000044H   BYTE   UNIT     CODE           ?PR?SHOWWAIT?DEMO
   *DEL*:           000051H   BYTE   UNIT     CODE           ?PR?_PININVERT?GPIO
   *DEL*:           00005BH   BYTE   UNIT     CODE           ?PR?_SHIFTOUT?GPIO
   *DEL*:           000004H   BYTE   UNIT     XDATA          ?XD?_SHIFTOUT?GPIO
   *DEL*:           000042H   BYTE   UNIT     CODE           ?PR?_SHIFTIN?GPIO
   *DEL*:           000006H   BYTE   UNIT     CODE           ?PR?_PRINT?USART
   *DEL*:           000017H   BYTE   UNIT     CODE           ?PR?_DELAY_10US?DELAY
   *DEL*:           000004H   BYTE   UNIT     CODE           ?PR?SPIEND?SPI
   *DEL*:           000069H   BYTE   UNIT     CODE           ?PR?_DISPLAY_GRAPHIC_32X32?12864
   *DEL*:           000007H   BYTE   UNIT     XDATA          ?XD?_DISPLAY_GRAPHIC_32X32?12864
   *DEL*:           000065H   BYTE   UNIT     CODE           ?PR?FULL_DISPLAY?12864
   *DEL*:           000004H   BYTE   UNIT     XDATA          ?XD?FULL_DISPLAY?12864
   *DEL*:           000069H   BYTE   UNIT     CODE           ?PR?_DISPLAY_GRAPHIC_16X16?12864
   *DEL*:           000007H   BYTE   UNIT     XDATA          ?XD?_DISPLAY_GRAPHIC_16X16?12864
   *DEL*:           000069H   BYTE   UNIT     CODE           ?PR?_DISPLAY_GRAPHIC_8X16?12864
   *DEL*:           000007H   BYTE   UNIT     XDATA          ?XD?_DISPLAY_GRAPHIC_8X16?12864
   *DEL*:           0000D3H   BYTE   UNIT     CODE           ?PR?_DISPLAY_SINGLE_8X16?12864
   *DEL*:           00000FH   BYTE   UNIT     XDATA          ?XD?_DISPLAY_SINGLE_8X16?12864
   *DEL*:           000047H   BYTE   UNIT     CODE           ?PR?_SEND_COMMAND_TO_ROM?12864
   *DEL*:           000002H   BYTE   UNIT     XDATA          ?XD?_SEND_COMMAND_TO_ROM?12864
   *DEL*:           000019H   BYTE   UNIT     CODE           ?PR?GET_DATA_FROM_ROM?12864
   *DEL*:           000071H   BYTE   UNIT     CODE           ?PR?_GET_AND_WRITE_16X16?12864
   *DEL*:           000009H   BYTE   UNIT     XDATA          ?XD?_GET_AND_WRITE_16X16?12864
   *DEL*:           000075H   BYTE   UNIT     CODE           ?PR?_GET_AND_WRITE_8X16?12864
   *DEL*:           000009H   BYTE   UNIT     XDATA          ?XD?_GET_AND_WRITE_8X16?12864
   *DEL*:           00005FH   BYTE   UNIT     CODE           ?PR?_GET_AND_WRITE_5X8?12864
   *DEL*:           000008H   BYTE   UNIT     XDATA          ?XD?_GET_AND_WRITE_5X8?12864
   *DEL*:           000276H   BYTE   UNIT     CODE           ?PR?_DISPLAY_GB2312_STRING?12864
   *DEL*:           000006H   BYTE   UNIT     XDATA          ?XD?_DISPLAY_GB2312_STRING?12864
   *DEL*:           0000DBH   BYTE   UNIT     CODE           ?PR?_DISPLAY_STRING_5X8?12864
   *DEL*:           000006H   BYTE   UNIT     XDATA          ?XD?_DISPLAY_STRING_5X8?12864
   *DEL*:           00004BH   BYTE   UNIT     CODE           ?PR?_SETLOWPOLITY?EINTERRUPT
   *DEL*:           000030H   BYTE   UNIT     CODE           ?PR?_ATTACHINTERRUPT?EINTERRUPT
   *DEL*:           000026H   BYTE   UNIT     CODE           ?PR?_DETACHINTERRUPT?EINTERRUPT
   *DEL*:           000003H   BYTE   UNIT     CODE           ?PR?TIMER0_DETACHINTERRUPT?EINTERRUPT
   *DEL*:           000039H   BYTE   UNIT     CODE           ?PR?_TIMER1_ATTACHINTERRUPT?EINTERRUPT
   *DEL*:           000003H   BYTE   UNIT     CODE           ?PR?TIMER1_DETACHINTERRUPT?EINTERRUPT
   *DEL*:           000039H   BYTE   UNIT     CODE           ?PR?_TIMER2_ATTACHINTERRUPT?EINTERRUPT
   *DEL*:           000004H   BYTE   UNIT     CODE           ?PR?TIMER2_DETACHINTERRUPT?EINTERRUPT
   *DEL*:           000039H   BYTE   UNIT     CODE           ?PR?_TIMER3_ATTACHINTERRUPT?EINTERRUPT
   *DEL*:           000004H   BYTE   UNIT     CODE           ?PR?TIMER3_DETACHINTERRUPT?EINTERRUPT
LX51 LINKER/LOCATER V4.66.1.0                                                         09/21/2015  00:52:51  PAGE 5


   *DEL*:           000039H   BYTE   UNIT     CODE           ?PR?_TIMER4_ATTACHINTERRUPT?EINTERRUPT
   *DEL*:           000004H   BYTE   UNIT     CODE           ?PR?TIMER4_DETACHINTERRUPT?EINTERRUPT
   *DEL*:           0000ABH   BYTE   UNIT     CODE           ?PR?_DRAW_CURVE?MENU
   *DEL*:           000005H   BYTE   UNIT     XDATA          ?XD?_DRAW_CURVE?MENU



OVERLAY MAP OF MODULE:   .\output\demo (?C_STARTUP)


FUNCTION/MODULE                          BIT_GROUP   DATA_GROUP   XDATA_GROUP
--> CALLED FUNCTION/MODULE              START  STOP  START  STOP  START  STOP
=============================================================================
?C_C51STARTUP                           ----- -----  ----- -----  ----- -----
  +--> MAIN/DEMO
  +--> ?C_INITSEG

MAIN/DEMO                               ----- -----  ----- -----  ----- -----
  +--> PININIT/DEMO
  +--> INITIAL_LCD/12864
  +--> SHOWLOGO/DEMO
  +--> _DELAY_MS/DELAY
  +--> CLEAR_SCREEN/12864
  +--> _ANALOGREAD/ADC
  +--> _SETHIGHPOLITY/EINTERRUPT
  +--> _TIMER0_ATTACHINTERRUPT/EINTERRUPT
  +--> CHOOSE_MODE/DEMO
  +--> _DIGITALWRITE/GPIO
  +--> SHOWTHROATTEN/DEMO
  +--> MENU_CHOOSE/DEMO
  +--> _DIGITALREAD/GPIO
  +--> _TONE/GPIO
  +--> _NOTONE/GPIO
  +--> SMALLADJUST/DEMO

PININIT/DEMO                            ----- -----  ----- -----  ----- -----
  +--> _SERIALBEGIN/USART
  +--> _PINMODE/GPIO
  +--> _SPISETGROUP/SPI
  +--> _SPISETDATAMODE/SPI
  +--> SPIBEGIN/SPI
  +--> _SPISETBITORDER/SPI
  +--> _SPISETCLOCKDIVIDER/SPI
  +--> INIT_NRF24L01/NRF24L01

_SERIALBEGIN/USART                      ----- -----  ----- -----  012EH 0162H

_PINMODE/GPIO                           ----- -----  ----- -----  ----- -----
  +--> ?CO?GPIO

?CO?GPIO                                ----- -----  ----- -----  ----- -----

_SPISETGROUP/SPI                        ----- -----  ----- -----  ----- -----

_SPISETDATAMODE/SPI                     ----- -----  ----- -----  ----- -----

SPIBEGIN/SPI                            ----- -----  ----- -----  ----- -----

_SPISETBITORDER/SPI                     ----- -----  ----- -----  ----- -----

_SPISETCLOCKDIVIDER/SPI                 ----- -----  ----- -----  ----- -----

INIT_NRF24L01/NRF24L01                  ----- -----  ----- -----  ----- -----
  +--> ?CO?NRF24L01
  +--> _SPI_WRITE_BUF/NRF24L01
LX51 LINKER/LOCATER V4.66.1.0                                                         09/21/2015  00:52:51  PAGE 6


  +--> _SPI_RW_REG/NRF24L01

?CO?NRF24L01                            ----- -----  ----- -----  ----- -----

_SPI_WRITE_BUF/NRF24L01                 ----- -----  ----- -----  016EH 0172H
  +--> _SPI_RW/NRF24L01

_SPI_RW/NRF24L01                        ----- -----  ----- -----  ----- -----

_SPI_RW_REG/NRF24L01                    ----- -----  ----- -----  ----- -----
  +--> _SPI_RW/NRF24L01

INITIAL_LCD/12864                       ----- -----  ----- -----  ----- -----
  +--> _DIGITALWRITE/GPIO
  +--> _DELAY_MS/DELAY
  +--> _TRANSFER_COMMAND/12864

_DIGITALWRITE/GPIO                      ----- -----  ----- -----  ----- -----
  +--> ?CO?GPIO

_DELAY_MS/DELAY                         ----- -----  ----- -----  012EH 0131H

_TRANSFER_COMMAND/12864                 ----- -----  ----- -----  014FH 014FH
  +--> _DIGITALWRITE/GPIO
  +--> _SPITRANSFER/SPI

_SPITRANSFER/SPI                        ----- -----  ----- -----  ----- -----

SHOWLOGO/DEMO                           ----- -----  ----- -----  ----- -----
  +--> CLEAR_SCREEN/12864
  +--> ?CO?DEMO
  +--> _DISPLAY_STRING_8X16/12864

CLEAR_SCREEN/12864                      ----- -----  ----- -----  013EH 013FH
  +--> _DIGITALWRITE/GPIO
  +--> _LCD_ADDRESS/12864
  +--> _TRANSFER_DATA/12864

_LCD_ADDRESS/12864                      ----- -----  ----- -----  014DH 014EH
  +--> _DIGITALWRITE/GPIO
  +--> _TRANSFER_COMMAND/12864

_TRANSFER_DATA/12864                    ----- -----  ----- -----  014DH 014DH
  +--> ?CO?12864
  +--> _DIGITALWRITE/GPIO
  +--> _SPITRANSFER/SPI

?CO?12864                               ----- -----  ----- -----  ----- -----

?CO?DEMO                                ----- -----  ----- -----  ----- -----

_DISPLAY_STRING_8X16/12864              ----- -----  ----- -----  013EH 014CH
  +--> _DIGITALWRITE/GPIO
  +--> _LCD_ADDRESS/12864
  +--> _TRANSFER_DATA/12864

_ANALOGREAD/ADC                         ----- -----  ----- -----  ----- -----
  +--> _ANALOGBEGIN/ADC
  +--> _ANALOGSTART/ADC
  +--> ANALOGRESULT/ADC

_ANALOGBEGIN/ADC                        ----- -----  ----- -----  ----- -----

_ANALOGSTART/ADC                        ----- -----  ----- -----  ----- -----

LX51 LINKER/LOCATER V4.66.1.0                                                         09/21/2015  00:52:51  PAGE 7


ANALOGRESULT/ADC                        ----- -----  ----- -----  ----- -----

_SETHIGHPOLITY/EINTERRUPT               ----- -----  ----- -----  ----- -----

_TIMER0_ATTACHINTERRUPT/EINTERRUPT      ----- -----  ----- -----  ----- -----

CHOOSE_MODE/DEMO                        ----- -----  ----- -----  ----- -----
  +--> CHOOSE_MENU/DEMO
  +--> _DIGITALREAD/GPIO
  +--> _CLEAR_GB/MENU
  +--> _DISPLAY_GB/MENU
  +--> CLEAR_SCREEN/12864
  +--> _DELAY_MS/DELAY

CHOOSE_MENU/DEMO                        ----- -----  ----- -----  ----- -----
  +--> ?CO?DEMO
  +--> _DISPLAY_STRING_8X16/12864

_DIGITALREAD/GPIO                       ----- -----  ----- -----  ----- -----
  +--> _DIGITALWRITE/GPIO
  +--> ?CO?GPIO

_CLEAR_GB/MENU                          ----- -----  ----- -----  012EH 012FH
  +--> _LCD_ADDRESS/12864
  +--> _TRANSFER_DATA/12864

_DISPLAY_GB/MENU                        ----- -----  ----- -----  ----- -----
  +--> ?CO?MENU
  +--> _DISPLAY_STRING_8X16/12864

?CO?MENU                                ----- -----  ----- -----  ----- -----

SHOWTHROATTEN/DEMO                      ----- -----  ----- -----  ----- -----
  +--> ?CO?DEMO
  +--> _DISPLAY_STRING_8X16/12864

MENU_CHOOSE/DEMO                        ----- -----  ----- -----  ----- -----
  +--> MAIN_MENU/DEMO
  +--> _DIGITALREAD/GPIO
  +--> _CLEAR_GB/MENU
  +--> _DISPLAY_GB/MENU
  +--> _SHOWSTATUS_MENU/DEMO
  +--> PRINTACC/DEMO
  +--> _SHOWDATA_MENU/DEMO
  +--> PRINTGYO/DEMO
  +--> PRINTPWM/DEMO
  +--> CLEAR_SCREEN/12864

MAIN_MENU/DEMO                          ----- -----  ----- -----  ----- -----
  +--> SHOWCHOICE/DEMO
  +--> ?CO?DEMO
  +--> _DISPLAY_STRING_8X16/12864

SHOWCHOICE/DEMO                         ----- -----  ----- -----  ----- -----
  +--> ?CO?DEMO
  +--> _DISPLAY_STRING_8X16/12864

_SHOWSTATUS_MENU/DEMO                   ----- -----  ----- -----  012EH 0139H
  +--> ?CO?DEMO
  +--> SHOWCHOICE/DEMO
  +--> _DISPLAY_STRING_8X16/12864
  +--> PRINTF/PRINTF

PRINTF/PRINTF                           25H.0 26H.0  000EH 0012H  013EH 016DH
  +--> _PUTCHAR/USART
LX51 LINKER/LOCATER V4.66.1.0                                                         09/21/2015  00:52:51  PAGE 8



_PUTCHAR/USART                          ----- -----  ----- -----  ----- -----
  +--> _PUTBUF/USART

_PUTBUF/USART                           ----- -----  ----- -----  ----- -----

PRINTACC/DEMO                           ----- -----  ----- -----  012EH 0131H

_SHOWDATA_MENU/DEMO                     ----- -----  ----- -----  012EH 013DH
  +--> ?CO?DEMO
  +--> SHOWCHOICE/DEMO
  +--> CLEAR_SCREEN/12864
  +--> _DISPLAY_STRING_8X16/12864
  +--> PRINTF/PRINTF

PRINTGYO/DEMO                           ----- -----  ----- -----  012EH 0131H

PRINTPWM/DEMO                           ----- -----  ----- -----  012EH 0131H

_TONE/GPIO                              ----- -----  ----- -----  012EH 0133H

_NOTONE/GPIO                            ----- -----  ----- -----  ----- -----
  +--> _DIGITALWRITE/GPIO

SMALLADJUST/DEMO                        ----- -----  ----- -----  ----- -----
  +--> _DIGITALREAD/GPIO
  +--> _TONE/GPIO
  +--> _NOTONE/GPIO

?C_INITSEG                              ----- -----  ----- -----  ----- -----

*** NEW ROOT **************************

TIMER0_INT/DEMO                         ----- -----  ----- -----  ----- -----
  +--> _NRF24L01_TXPACKET/NRF24L01
  +--> SETRX_MODE/NRF24L01
  +--> _NRF24L01_RXPACKET/NRF24L01

_NRF24L01_TXPACKET/NRF24L01             ----- -----  ----- -----  ----- -----
  +--> _SPI_RW_REG/NRF24L01
  +--> _SPI_WRITE_BUF/NRF24L01
  +--> _DELAY_US/DELAY

_DELAY_US/DELAY                         ----- -----  ----- -----  ----- -----

SETRX_MODE/NRF24L01                     ----- -----  ----- -----  ----- -----
  +--> _SPI_RW_REG/NRF24L01

_NRF24L01_RXPACKET/NRF24L01             ----- -----  ----- -----  016EH 0171H
  +--> _SPI_READ/NRF24L01
  +--> _SPI_READ_BUF/NRF24L01
  +--> _SPI_RW_REG/NRF24L01

_SPI_READ/NRF24L01                      ----- -----  ----- -----  0172H 0173H
  +--> _DELAY_US/DELAY
  +--> _SPI_RW/NRF24L01

_SPI_READ_BUF/NRF24L01                  ----- -----  ----- -----  0172H 0176H
  +--> _SPI_RW/NRF24L01

*** NEW ROOT **************************

SERIAL/USART                            26H.1 26H.1  ----- -----  ----- -----

*** NEW ROOT **************************
LX51 LINKER/LOCATER V4.66.1.0                                                         09/21/2015  00:52:51  PAGE 9



SERIAL2/USART                           26H.2 26H.2  ----- -----  ----- -----

*** NEW ROOT **************************

SERIAL3/USART                           26H.3 26H.3  ----- -----  ----- -----

*** NEW ROOT **************************

SERIAL4/USART                           26H.4 26H.4  ----- -----  ----- -----



PUBLIC SYMBOLS OF MODULE:  .\output\demo (?C_STARTUP)


      VALUE       CLASS    TYPE      PUBLIC SYMBOL NAME
      =================================================
*DEL*:00000000H   XDATA    BYTE      ?_get_and_write_16x16?BYTE
*DEL*:00000000H   XDATA    BYTE      ?_get_and_write_5x8?BYTE
*DEL*:00000000H   XDATA    BYTE      ?_get_and_write_8x16?BYTE
      0200013EH   XDATA    ---       ?_PRINTF?BYTE
      0200012EH   XDATA    BYTE      ?_Serialbegin?BYTE
*DEL*:00000000H   XDATA    BYTE      ?_shiftOut?BYTE
      0200012EH   XDATA    BYTE      ?_ShowStatus_menu?BYTE
      02000172H   XDATA    BYTE      ?_SPI_Read_Buf?BYTE
      0200016EH   XDATA    BYTE      ?_SPI_Write_Buf?BYTE
      0200013EH   XDATA    ---       ?_SPRINTF?BYTE
      0100026CH   CODE     ---       ?C?CASTF
      01000939H   CODE     ---       ?C?CCASE
      010006B4H   CODE     ---       ?C?CLDOPTR
      0100069BH   CODE     ---       ?C?CLDPTR
      00000000H   NUMBER   ---       ?C?CODESEG
      01000675H   CODE     ---       ?C?COPY
      010006F3H   CODE     ---       ?C?CSTOPTR
      010006E1H   CODE     ---       ?C?CSTPTR
      01000238H   CODE     ---       ?C?FCASTC
      01000233H   CODE     ---       ?C?FCASTI
      0100022EH   CODE     ---       ?C?FCASTL
      0100009DH   CODE     ---       ?C?FPADD
      0100032AH   CODE     ---       ?C?FPCONVERT
      01000191H   CODE     ---       ?C?FPDIV
      010002A3H   CODE     ---       ?C?FPGETOPN2
      0100042FH   CODE     ---       ?C?FPMUL
      010002D8H   CODE     ---       ?C?FPNANRESULT
      010002E2H   CODE     ---       ?C?FPOVERFLOW
      010002BAH   CODE     ---       ?C?FPRESULT
      010002CEH   CODE     ---       ?C?FPRESULT2
      010002EDH   CODE     ---       ?C?FPROUND
      01000099H   CODE     ---       ?C?FPSUB
      010002DFH   CODE     ---       ?C?FPUNDERFLOW
      01000565H   CODE     ---       ?C?FTNPWR
      0100075DH   CODE     ---       ?C?IILDX
      01000773H   CODE     ---       ?C?ILDIX
      01000715H   CODE     ---       ?C?IMUL
      010008E1H   CODE     ---       ?C?LILDXDATA
      010008D8H   CODE     ---       ?C?LILDXDATA1
      010008DAH   CODE     ---       ?C?LILDXDATA8
      01000789H   CODE     ---       ?C?LMUL
      010008A6H   CODE     ---       ?C?LNEG
      0100090DH   CODE     ---       ?C?LSTXDATA
      0100095FH   CODE     ---       ?C?MEMSET
      01000919H   CODE     ---       ?C?PLDIXDATA
      01000930H   CODE     ---       ?C?PSTXDATA
      01000727H   CODE     ---       ?C?SIDIV
LX51 LINKER/LOCATER V4.66.1.0                                                         09/21/2015  00:52:51  PAGE 10


      01002CE7H   CODE     ---       ?C?SLDIV
      0100098BH   CODE     ---       ?C?UIDIV
      010008B4H   CODE     ---       ?C?ULCMP
      01000814H   CODE     ---       ?C?ULDIV
      010008C5H   CODE     ---       ?C?ULSHR
      00000000H   NUMBER   ---       ?C?XDATASEG
      01002807H   CODE     ---       ?C_START
      01000000H   CODE     ---       ?C_STARTUP
      01002FC0H   CODE     ---       _analogbegin
      01003024H   CODE     ---       _analogRead
      01000026H   CODE     ---       _analogStart
*DEL*:00000000H   CODE     ---       _attachInterrupt
      01002E28H   CODE     ---       _clear_gb
      02000106H   XDATA    ---       _data
*DEL*:00000000H   CODE     ---       _delay_10us
      01002FE2H   CODE     ---       _delay_ms
      0100008EH   CODE     ---       _delay_us
*DEL*:00000000H   CODE     ---       _detachInterrupt
      0100273CH   CODE     ---       _digitalRead
      01002699H   CODE     ---       _digitalWrite
      0100307AH   CODE     ---       _display_gb
*DEL*:00000000H   CODE     ---       _display_GB2312_string
*DEL*:00000000H   CODE     ---       _display_graphic_16x16
*DEL*:00000000H   CODE     ---       _display_graphic_32x32
*DEL*:00000000H   CODE     ---       _display_graphic_8x16
*DEL*:00000000H   CODE     ---       _display_single_8x16
*DEL*:00000000H   CODE     ---       _display_string_5x8
      0100216AH   CODE     ---       _display_string_8x16
*DEL*:00000000H   CODE     ---       _draw_curve
*DEL*:00000000H   CODE     ---       _get_and_write_16x16
*DEL*:00000000H   CODE     ---       _get_and_write_5x8
*DEL*:00000000H   CODE     ---       _get_and_write_8x16
      01002D74H   CODE     ---       _lcd_address
      01002DECH   CODE     ---       _noTone
      01002B77H   CODE     ---       _nRF24L01_RxPacket
      01002F97H   CODE     ---       _nRF24L01_TxPacket
*DEL*:00000000H   CODE     ---       _pinInvert
      0100237EH   CODE     ---       _pinMode
*DEL*:00000000H   CODE     ---       _print
      01000A4BH   CODE     ---       _PRINTF
      01001F42H   CODE     ---       _putbuf
      0100000EH   CODE     ---       _putchar
*DEL*:0000000FH   CODE     ---       _send_command_to_ROM
      0100117AH   CODE     ---       _Serialbegin
      01002C0EH   CODE     ---       _setHighPolity
*DEL*:00000000H   CODE     ---       _setLowPolity
*DEL*:00000000H   CODE     ---       _shiftIn
*DEL*:00000000H   CODE     ---       _shiftOut
      01001800H   CODE     ---       _ShowData_menu
      01001B61H   CODE     ---       _ShowStatus_menu
      01002F67H   CODE     ---       _SPI_Read
      01002E9BH   CODE     ---       _SPI_Read_Buf
      01002AC0H   CODE     ---       _SPI_RW
      0100305BH   CODE     ---       _SPI_RW_Reg
      01002F03H   CODE     ---       _SPI_Write_Buf
      010030ADH   CODE     ---       _SPIsetBitOrder
      010030A1H   CODE     ---       _SPIsetClockDivider
      0100306CH   CODE     ---       _SPIsetDataMode
      01000003H   CODE     ---       _SPIsetGroup
      01003088H   CODE     ---       _SPItransfer
      01000A45H   CODE     ---       _SPRINTF
      01002E62H   CODE     ---       _Timer0_attachInterrupt
*DEL*:00000000H   CODE     ---       _Timer1_attachInterrupt
*DEL*:00000000H   CODE     ---       _Timer2_attachInterrupt
*DEL*:00000000H   CODE     ---       _Timer3_attachInterrupt
LX51 LINKER/LOCATER V4.66.1.0                                                         09/21/2015  00:52:51  PAGE 11


*DEL*:00000000H   CODE     ---       _Timer4_attachInterrupt
      010013DFH   CODE     ---       _tone
      01003040H   CODE     ---       _transfer_command
      01002DD1H   CODE     ---       _transfer_data
*SFR* 000000D0H.6 DATA     BIT       AC
*SFR* 000000E0H   DATA     BYTE      ACC
*SFR* 000000E0H   DATA     BIT       ACC0
*SFR* 000000E0H.1 DATA     BIT       ACC1
*SFR* 000000E0H.2 DATA     BIT       ACC2
*SFR* 000000E0H.3 DATA     BIT       ACC3
*SFR* 000000E0H.4 DATA     BIT       ACC4
*SFR* 000000E0H.5 DATA     BIT       ACC5
*SFR* 000000E0H.6 DATA     BIT       ACC6
*SFR* 000000E0H.7 DATA     BIT       ACC7
*SFR* 000000BCH   DATA     BYTE      ADC_CONTR
*SFR* 000000BDH   DATA     BYTE      ADC_RES
*SFR* 000000BEH   DATA     BYTE      ADC_RESL
      01003004H   CODE     ---       analogResult
      00000008H   DATA     INT       Angle_X
      020000D4H   XDATA    INT       Angle_X_temp
      0000000AH   DATA     INT       Angle_Y
      020000D6H   XDATA    INT       Angle_Y_temp
      010030C5H   CONST    ---       ascii_table_8x16
*SFR* 0000008EH   DATA     BYTE      AUXR
*SFR* 000000A2H   DATA     BYTE      AUXR1
*SFR* 000000F0H   DATA     BYTE      B
*SFR* 000000F0H   DATA     BIT       B0
*SFR* 000000F0H.1 DATA     BIT       B1
*SFR* 000000F0H.2 DATA     BIT       B2
*SFR* 000000F0H.3 DATA     BIT       B3
*SFR* 000000F0H.4 DATA     BIT       B4
*SFR* 000000F0H.5 DATA     BIT       B5
*SFR* 000000F0H.6 DATA     BIT       B6
*SFR* 000000F0H.7 DATA     BIT       B7
      020000D3H   XDATA    BYTE      bai
      00000027H   IDATA    INT       battery
      00000024H.6 BIT      BIT       bufempty
      00000023H.3 BIT      BIT       bufempty2
      00000023H.4 BIT      BIT       bufempty3
      00000023H.5 BIT      BIT       bufempty4
*SFR* 000000A1H   DATA     BYTE      BUS_SPEED
*SFR* 000000FAH   DATA     BYTE      CCAP0H
*SFR* 000000EAH   DATA     BYTE      CCAP0L
*SFR* 000000FBH   DATA     BYTE      CCAP1H
*SFR* 000000EBH   DATA     BYTE      CCAP1L
*SFR* 000000FCH   DATA     BYTE      CCAP2H
*SFR* 000000ECH   DATA     BYTE      CCAP2L
*SFR* 000000DAH   DATA     BYTE      CCAPM0
*SFR* 000000DBH   DATA     BYTE      CCAPM1
*SFR* 000000DCH   DATA     BYTE      CCAPM2
*SFR* 000000D8H   DATA     BIT       CCF0
*SFR* 000000D8H.1 DATA     BIT       CCF1
*SFR* 000000D8H.2 DATA     BIT       CCF2
*SFR* 000000D8H   DATA     BYTE      CCON
*SFR* 000000A0H   DATA     BIT       CE
*SFR* 000000D8H.7 DATA     BIT       CF
*SFR* 000000F9H   DATA     BYTE      CH
      01002ED0H   CODE     ---       choose_menu
      01001E1AH   CODE     ---       choose_mode
*SFR* 000000E9H   DATA     BYTE      CL
      01002D2BH   CODE     ---       clear_screen
*SFR* 00000097H   DATA     BYTE      CLK_DIV
*SFR* 000000D9H   DATA     BYTE      CMOD
*SFR* 000000E6H   DATA     BYTE      CMPCR1
*SFR* 000000E7H   DATA     BYTE      CMPCR2
LX51 LINKER/LOCATER V4.66.1.0                                                         09/21/2015  00:52:51  PAGE 12


      020000CEH   XDATA    CHAR      COMx
      0000000CH   DATA     BYTE      count
      0000000DH   DATA     BYTE      count1
      020000DBH   XDATA    INT       count_cls
*SFR* 000000D8H.6 DATA     BIT       CR
*SFR* 000000C0H.4 DATA     BIT       CSN
*SFR* 000000D0H.7 DATA     BIT       CY
      01003795H   CONST    ---       digital_pin_mode_PxM0_PGM
      01003775H   CONST    ---       digital_pin_mode_PxM1_PGM
      010036B5H   CONST    ---       digital_pin_to_bit_mask_PGM
      010036F5H   CONST    ---       digital_pin_to_bit_PGM
      01003735H   CONST    ---       digital_pin_to_port_PGM
*SFR* 00000083H   DATA     BYTE      DPH
*SFR* 00000082H   DATA     BYTE      DPL
*SFR* 000000A8H.7 DATA     BIT       EA
*SFR* 000000A8H.5 DATA     BIT       EADC
*SFR* 000000A8H.6 DATA     BIT       ELVD
*SFR* 000000A8H.4 DATA     BIT       ES
*SFR* 000000A8H.1 DATA     BIT       ET0
*SFR* 000000A8H.3 DATA     BIT       ET1
*SFR* 000000A8H   DATA     BIT       EX0
*SFR* 000000A8H.2 DATA     BIT       EX1
*SFR* 000000D0H.5 DATA     BIT       F0
      020000D2H   XDATA    BYTE      flag_once
      02000105H   XDATA    BYTE      FLY_MODE
      02000177H   XDATA    DWORD     fontaddr
*DEL*:00000000H   CODE     ---       full_display
      020000D9H   XDATA    CHAR      gb
      020000DAH   XDATA    BYTE      ge
*SFR* 000000C3H   DATA     BYTE      IAP_ADDRH
*SFR* 000000C4H   DATA     BYTE      IAP_ADDRL
*SFR* 000000C5H   DATA     BYTE      IAP_CMD
*SFR* 000000C7H   DATA     BYTE      IAP_CONTR
*SFR* 000000C2H   DATA     BYTE      IAP_DATA
*SFR* 000000C6H   DATA     BYTE      IAP_TRIG
*SFR* 000000A8H   DATA     BYTE      IE
*SFR* 00000088H.1 DATA     BIT       IE0
*SFR* 00000088H.3 DATA     BIT       IE1
*SFR* 000000AFH   DATA     BYTE      IE2
      02000033H   XDATA    BYTE      iend
      020000CAH   XDATA    BYTE      iend2
      020000CCH   XDATA    BYTE      iend3
      020000CDH   XDATA    BYTE      iend4
      02000001H   XDATA    ---       inbuf
      02000035H   XDATA    ---       inbuf2
      02000045H   XDATA    ---       inbuf3
      02000055H   XDATA    ---       inbuf4
      01002BC3H   CODE     ---       init_NRF24L01
      010025FFH   CODE     ---       initial_lcd
*SFR* 0000008FH   DATA     BYTE      INT_CLKO
*SFR* 000000B8H   DATA     BYTE      IP
*SFR* 000000B5H   DATA     BYTE      IP2
*SFR* 000000B0H.2 DATA     BIT       IRQ
      02000031H   XDATA    BYTE      istart
      020000C5H   XDATA    BYTE      istart2
      020000C6H   XDATA    BYTE      istart3
      020000C7H   XDATA    BYTE      istart4
*SFR* 00000088H   DATA     BIT       IT0
*SFR* 00000088H.2 DATA     BIT       IT1
      00000021H   DATA     BYTE      key
      00000021H.0 DATA     BIT       key0
      00000021H.1 DATA     BIT       key1
      00000021H.2 DATA     BIT       key2
      00000035H   IDATA    INT       Last_Pitch
      00000029H   IDATA    INT       Last_Roll
LX51 LINKER/LOCATER V4.66.1.0                                                         09/21/2015  00:52:51  PAGE 13


      0000002BH   IDATA    INT       Last_Thro
      00000031H   IDATA    INT       Last_Yaw
      01000E63H   CODE     ---       main
      01002CA0H   CODE     ---       main_menu
      00000022H.4 DATA     BIT       MAX_RT
      00000020H.1 DATA     BIT       menu_1
      00000020H.2 DATA     BIT       menu_2
      00000020H.3 DATA     BIT       menu_3
      00000020H.4 DATA     BIT       menu_4
      01001603H   CODE     ---       menu_choose
      00000020H.0 DATA     BIT       menu_main
      00000020H   DATA     BYTE      menu_status
*SFR* 000000A0H.2 DATA     BIT       MISO
*SFR* 000000A0H.3 DATA     BIT       MOSI
      02000034H   XDATA    BYTE      oend
      020000CFH   XDATA    BYTE      oend2
      020000D0H   XDATA    BYTE      oend3
      020000D1H   XDATA    BYTE      oend4
      02000032H   XDATA    BYTE      ostart
      020000C8H   XDATA    BYTE      ostart2
      020000C9H   XDATA    BYTE      ostart3
      020000CBH   XDATA    BYTE      ostart4
      02000011H   XDATA    ---       outbuf
      02000065H   XDATA    ---       outbuf2
      02000085H   XDATA    ---       outbuf3
      020000A5H   XDATA    ---       outbuf4
*SFR* 000000D0H.2 DATA     BIT       OV
*SFR* 000000D0H   DATA     BIT       P
*SFR* 00000080H   DATA     BYTE      P0
*SFR* 00000080H   DATA     BIT       P00
*SFR* 00000080H.1 DATA     BIT       P01
*SFR* 00000080H.2 DATA     BIT       P02
*SFR* 00000080H.3 DATA     BIT       P03
*SFR* 00000080H.4 DATA     BIT       P04
*SFR* 00000080H.5 DATA     BIT       P05
*SFR* 00000080H.6 DATA     BIT       P06
*SFR* 00000080H.7 DATA     BIT       P07
*SFR* 00000094H   DATA     BYTE      P0M0
*SFR* 00000093H   DATA     BYTE      P0M1
*SFR* 00000090H   DATA     BYTE      P1
*SFR* 00000090H   DATA     BIT       P10
*SFR* 00000090H.1 DATA     BIT       P11
*SFR* 00000090H.2 DATA     BIT       P12
*SFR* 00000090H.3 DATA     BIT       P13
*SFR* 00000090H.4 DATA     BIT       P14
*SFR* 00000090H.5 DATA     BIT       P15
*SFR* 00000090H.6 DATA     BIT       P16
*SFR* 00000090H.7 DATA     BIT       P17
*SFR* 0000009DH   DATA     BYTE      P1ASF
*SFR* 00000092H   DATA     BYTE      P1M0
*SFR* 00000091H   DATA     BYTE      P1M1
*SFR* 000000A0H   DATA     BYTE      P2
*SFR* 000000A0H   DATA     BIT       P20
*SFR* 000000A0H.1 DATA     BIT       P21
*SFR* 000000A0H.2 DATA     BIT       P22
*SFR* 000000A0H.3 DATA     BIT       P23
*SFR* 000000A0H.4 DATA     BIT       P24
*SFR* 000000A0H.5 DATA     BIT       P25
*SFR* 000000A0H.6 DATA     BIT       P26
*SFR* 000000A0H.7 DATA     BIT       P27
*SFR* 00000096H   DATA     BYTE      P2M0
*SFR* 00000095H   DATA     BYTE      P2M1
*SFR* 000000B0H   DATA     BYTE      P3
*SFR* 000000B0H   DATA     BIT       P30
*SFR* 000000B0H.1 DATA     BIT       P31
LX51 LINKER/LOCATER V4.66.1.0                                                         09/21/2015  00:52:51  PAGE 14


*SFR* 000000B0H.2 DATA     BIT       P32
*SFR* 000000B0H.3 DATA     BIT       P33
*SFR* 000000B0H.4 DATA     BIT       P34
*SFR* 000000B0H.5 DATA     BIT       P35
*SFR* 000000B0H.6 DATA     BIT       P36
*SFR* 000000B0H.7 DATA     BIT       P37
*SFR* 000000B2H   DATA     BYTE      P3M0
*SFR* 000000B1H   DATA     BYTE      P3M1
*SFR* 000000C0H   DATA     BYTE      P4
*SFR* 000000C0H   DATA     BIT       P40
*SFR* 000000C0H.1 DATA     BIT       P41
*SFR* 000000C0H.2 DATA     BIT       P42
*SFR* 000000C0H.3 DATA     BIT       P43
*SFR* 000000C0H.4 DATA     BIT       P44
*SFR* 000000C0H.5 DATA     BIT       P45
*SFR* 000000C0H.6 DATA     BIT       P46
*SFR* 000000C0H.7 DATA     BIT       P47
*SFR* 000000B4H   DATA     BYTE      P4M0
*SFR* 000000B3H   DATA     BYTE      P4M1
*SFR* 000000C8H   DATA     BYTE      P5
*SFR* 000000C8H   DATA     BIT       P50
*SFR* 000000C8H.1 DATA     BIT       P51
*SFR* 000000C8H.2 DATA     BIT       P52
*SFR* 000000C8H.3 DATA     BIT       P53
*SFR* 000000C8H.4 DATA     BIT       P54
*SFR* 000000C8H.5 DATA     BIT       P55
*SFR* 000000C8H.6 DATA     BIT       P56
*SFR* 000000C8H.7 DATA     BIT       P57
*SFR* 000000CAH   DATA     BYTE      P5M0
*SFR* 000000C9H   DATA     BYTE      P5M1
*SFR* 000000E8H   DATA     BYTE      P6
*SFR* 000000E8H   DATA     BIT       P60
*SFR* 000000E8H.1 DATA     BIT       P61
*SFR* 000000E8H.2 DATA     BIT       P62
*SFR* 000000E8H.3 DATA     BIT       P63
*SFR* 000000E8H.4 DATA     BIT       P64
*SFR* 000000E8H.5 DATA     BIT       P65
*SFR* 000000E8H.6 DATA     BIT       P66
*SFR* 000000E8H.7 DATA     BIT       P67
*SFR* 000000CCH   DATA     BYTE      P6M0
*SFR* 000000CBH   DATA     BYTE      P6M1
*SFR* 000000F8H   DATA     BYTE      P7
*SFR* 000000F8H   DATA     BIT       P70
*SFR* 000000F8H.1 DATA     BIT       P71
*SFR* 000000F8H.2 DATA     BIT       P72
*SFR* 000000F8H.3 DATA     BIT       P73
*SFR* 000000F8H.4 DATA     BIT       P74
*SFR* 000000F8H.5 DATA     BIT       P75
*SFR* 000000F8H.6 DATA     BIT       P76
*SFR* 000000F8H.7 DATA     BIT       P77
*SFR* 000000E2H   DATA     BYTE      P7M0
*SFR* 000000E1H   DATA     BYTE      P7M1
*SFR* 000000A0H   DATA     BIT       P_24L01_CE
*SFR* 000000C0H.4 DATA     BIT       P_24L01_CSN
*SFR* 000000B0H.2 DATA     BIT       P_24L01_IRQ
*SFR* 000000A0H.2 DATA     BIT       P_24L01_MISO
*SFR* 000000A0H.3 DATA     BIT       P_24L01_MOSI
*SFR* 000000A0H.1 DATA     BIT       P_24L01_SCK
*SFR* 000000A2H   DATA     BYTE      P_SW1
*SFR* 000000BAH   DATA     BYTE      P_SW2
*SFR* 000000B8H.5 DATA     BIT       PADC
*SFR* 000000F2H   DATA     BYTE      PCA_PWM0
*SFR* 000000F3H   DATA     BYTE      PCA_PWM1
*SFR* 000000F4H   DATA     BYTE      PCA_PWM2
*SFR* 00000087H   DATA     BYTE      PCON
LX51 LINKER/LOCATER V4.66.1.0                                                         09/21/2015  00:52:51  PAGE 15


*SFR* 00000097H   DATA     BYTE      PCON2
      01002278H   CODE     ---       pinINIT
      00000037H   IDATA    INT       Pitch
*SFR* 000000B8H.6 DATA     BIT       PLVD
*SFR* 000000B8H.7 DATA     BIT       PPCA
      01001CE7H   CODE     ---       printACC
      01002466H   CODE     ---       printGYO
      01002546H   CODE     ---       printPWM
*SFR* 000000B8H.4 DATA     BIT       PS
*SFR* 000000D0H   DATA     BYTE      PSW
*SFR* 000000B8H.1 DATA     BIT       PT0
*SFR* 000000B8H.3 DATA     BIT       PT1
*SFR* 000000F1H   DATA     BYTE      PWMCFG
*SFR* 000000F5H   DATA     BYTE      PWMCR
*SFR* 000000F7H   DATA     BYTE      PWMFDCR
*SFR* 000000F6H   DATA     BYTE      PWMIF
*SFR* 000000B8H   DATA     BIT       PX0
*SFR* 000000B8H.2 DATA     BIT       PX1
*SFR* 00000098H.2 DATA     BIT       RB8
*SFR* 00000098H.4 DATA     BIT       REN
*SFR* 00000098H   DATA     BIT       RI
      0000002DH   IDATA    INT       Roll
*SFR* 00000090H.5 DATA     BIT       Rom_CS
*SFR* 00000090H.2 DATA     BIT       Rom_IN
*SFR* 00000090H.3 DATA     BIT       Rom_OUT
*SFR* 00000090H.4 DATA     BIT       Rom_SCK
*SFR* 000000D0H.3 DATA     BIT       RS0
*SFR* 000000D0H.4 DATA     BIT       RS1
      010037BAH   CONST    ---       RX_ADDRESS
      00000022H.6 DATA     BIT       RX_DR
      020000DDH   XDATA    ---       RxBuf
*SFR* 0000009BH   DATA     BYTE      S2BUF
*SFR* 0000009AH   DATA     BYTE      S2CON
*SFR* 000000ADH   DATA     BYTE      S3BUF
*SFR* 000000ACH   DATA     BYTE      S3CON
*SFR* 00000085H   DATA     BYTE      S4BUF
*SFR* 00000084H   DATA     BYTE      S4CON
*SFR* 000000A9H   DATA     BYTE      SADDR
*SFR* 000000B9H   DATA     BYTE      SADEN
*SFR* 00000099H   DATA     BYTE      SBUF
*SFR* 000000A0H.1 DATA     BIT       SCK
*SFR* 00000098H   DATA     BYTE      SCON
      00000024H.1 BIT      BIT       sendactive
      00000024H.2 BIT      BIT       sendactive2
      00000024H.3 BIT      BIT       sendactive3
      00000024H.4 BIT      BIT       sendactive4
      00000024H.5 BIT      BIT       sendfull
      00000023H.0 BIT      BIT       sendfull2
      00000023H.1 BIT      BIT       sendfull3
      00000023H.2 BIT      BIT       sendfull4
      00000024H.7 BIT      BIT       sendstop
      00000023H.6 BIT      BIT       sendstop2
      00000023H.7 BIT      BIT       sendstop3
      00000024H.0 BIT      BIT       sendstop4
      01002B27H   CODE     ---       serial
      010028D8H   CODE     ---       serial2
      01002951H   CODE     ---       serial3
      010029CAH   CODE     ---       serial4
      01003095H   CODE     ---       SetRX_Mode
      020000D8H   XDATA    BYTE      shi
      01002F36H   CODE     ---       showChoice
      01002C59H   CODE     ---       ShowLogo
      01000046H   CODE     ---       ShowThroAtten
*DEL*:00000000H   CODE     ---       ShowWait
*SFR* 00000098H.7 DATA     BIT       SM0
LX51 LINKER/LOCATER V4.66.1.0                                                         09/21/2015  00:52:51  PAGE 16


*SFR* 00000098H.6 DATA     BIT       SM1
*SFR* 00000098H.5 DATA     BIT       SM2
      010019C9H   CODE     ---       smalladjust
*SFR* 00000081H   DATA     BYTE      SP
*SFR* 000000CEH   DATA     BYTE      SPCTL
*SFR* 000000CFH   DATA     BYTE      SPDAT
      010030B8H   CODE     ---       SPIbegin
*DEL*:00000000H   CODE     ---       SPIend
*SFR* 000000CDH   DATA     BYTE      SPSTAT
      00000022H   DATA     BYTE      sta
*SFR* 000000D6H   DATA     BYTE      T2H
*SFR* 000000D7H   DATA     BYTE      T2L
*SFR* 000000D4H   DATA     BYTE      T3H
*SFR* 000000D5H   DATA     BYTE      T3L
*SFR* 000000D1H   DATA     BYTE      T3T4M
*SFR* 000000D2H   DATA     BYTE      T4H
*SFR* 000000D3H   DATA     BYTE      T4L
*SFR* 000000D1H   DATA     BYTE      T4T3M
*SFR* 00000098H.3 DATA     BIT       TB8
*SFR* 00000088H   DATA     BYTE      TCON
*SFR* 00000088H.5 DATA     BIT       TF0
*SFR* 00000088H.7 DATA     BIT       TF1
*SFR* 0000008CH   DATA     BYTE      TH0
*SFR* 0000008DH   DATA     BYTE      TH1
      0000002FH   IDATA    INT       Thro
*SFR* 00000098H.1 DATA     BIT       TI
*DEL*:00000000H   CODE     ---       Timer0_detachInterrupt
      0100284CH   CODE     ---       timer0_int
*DEL*:00000000H   CODE     ---       Timer1_detachInterrupt
*DEL*:00000000H   CODE     ---       Timer2_detachInterrupt
*DEL*:00000000H   CODE     ---       Timer3_detachInterrupt
*DEL*:00000000H   CODE     ---       Timer4_detachInterrupt
*SFR* 0000008AH   DATA     BYTE      TL0
*SFR* 0000008BH   DATA     BYTE      TL1
*SFR* 00000089H   DATA     BYTE      TMOD
*SFR* 00000088H.4 DATA     BIT       TR0
*SFR* 00000088H.6 DATA     BIT       TR1
      010037B5H   CONST    ---       TX_ADDRESS
      00000022H.5 DATA     BIT       TX_DS
      00000022H.0 DATA     BIT       TX_FULL
      020000F1H   XDATA    ---       TxBuf
*SFR* 000000C1H   DATA     BYTE      WDT_CONTR
*SFR* 000000ABH   DATA     BYTE      WKTCH
*SFR* 000000AAH   DATA     BYTE      WKTCL
      00000033H   IDATA    INT       Yaw



SYMBOL TABLE OF MODULE:  .\output\demo (?C_STARTUP)

      VALUE       REP       CLASS    TYPE      SYMBOL NAME
      ====================================================
      ---         MODULE    ---      ---       ?C_STARTUP
      01000000H   PUBLIC    CODE     ---       ?C_STARTUP
      000000E0H   SYMBOL    DATA     ---       ACC
      000000F0H   SYMBOL    DATA     ---       B
      00000083H   SYMBOL    DATA     ---       DPH
      00000082H   SYMBOL    DATA     ---       DPL
      00000000H   SYMBOL    NUMBER   ---       IBPSTACK
      00000100H   SYMBOL    NUMBER   ---       IBPSTACKTOP
      00000080H   SYMBOL    NUMBER   ---       IDATALEN
      010027C3H   SYMBOL    CODE     ---       IDATALOOP
      00000000H   SYMBOL    NUMBER   ---       PBPSTACK
      00000100H   SYMBOL    NUMBER   ---       PBPSTACKTOP
      00000000H   SYMBOL    NUMBER   ---       PDATALEN
LX51 LINKER/LOCATER V4.66.1.0                                                         09/21/2015  00:52:51  PAGE 17


      00000000H   SYMBOL    NUMBER   ---       PDATASTART
      00000000H   SYMBOL    NUMBER   ---       PPAGE
      00000000H   SYMBOL    NUMBER   ---       PPAGEENABLE
      000000A0H   SYMBOL    DATA     ---       PPAGE_SFR
      00000081H   SYMBOL    DATA     ---       SP
      010027C0H   SYMBOL    CODE     ---       STARTUP1
      00000000H   SYMBOL    NUMBER   ---       XBPSTACK
      00000000H   SYMBOL    NUMBER   ---       XBPSTACKTOP
      00000000H   SYMBOL    NUMBER   ---       XDATALEN
      00000000H   SYMBOL    NUMBER   ---       XDATASTART
      01000000H   LINE      CODE     ---       #126
      010027C0H   LINE      CODE     ---       #133
      010027C2H   LINE      CODE     ---       #134
      010027C3H   LINE      CODE     ---       #135
      010027C4H   LINE      CODE     ---       #136
      010027C6H   LINE      CODE     ---       #185
      010027C9H   LINE      CODE     ---       #196

      ---         MODULE    ---      ---       DEMO
      00000021H.2 PUBLIC    DATA     BIT       key2
      00000021H.1 PUBLIC    DATA     BIT       key1
      02000106H   PUBLIC    XDATA    ---       _data
      00000037H   PUBLIC    IDATA    INT       Pitch
      00000021H   PUBLIC    DATA     BIT       key0
      02000105H   PUBLIC    XDATA    BYTE      FLY_MODE
      00000035H   PUBLIC    IDATA    INT       Last_Pitch
      020000F1H   PUBLIC    XDATA    ---       TxBuf
      020000DDH   PUBLIC    XDATA    ---       RxBuf
      0000000DH   PUBLIC    DATA     BYTE      count1
      020000DBH   PUBLIC    XDATA    INT       count_cls
      020000DAH   PUBLIC    XDATA    BYTE      ge
      00000020H.4 PUBLIC    DATA     BIT       menu_4
      00000021H   PUBLIC    DATA     BYTE      key
      00000020H.3 PUBLIC    DATA     BIT       menu_3
      00000020H.2 PUBLIC    DATA     BIT       menu_2
      020000D9H   PUBLIC    XDATA    CHAR      gb
      00000020H.1 PUBLIC    DATA     BIT       menu_1
      020000D8H   PUBLIC    XDATA    BYTE      shi
      00000020H   PUBLIC    DATA     BIT       menu_main
      00000020H   PUBLIC    DATA     BYTE      menu_status
      020000D6H   PUBLIC    XDATA    INT       Angle_Y_temp
      020000D4H   PUBLIC    XDATA    INT       Angle_X_temp
      00000033H   PUBLIC    IDATA    INT       Yaw
      020000D3H   PUBLIC    XDATA    BYTE      bai
      0000000CH   PUBLIC    DATA     BYTE      count
      00000031H   PUBLIC    IDATA    INT       Last_Yaw
      020000D2H   PUBLIC    XDATA    BYTE      flag_once
      0000000AH   PUBLIC    DATA     INT       Angle_Y
      00000008H   PUBLIC    DATA     INT       Angle_X
      0000002FH   PUBLIC    IDATA    INT       Thro
      0000002DH   PUBLIC    IDATA    INT       Roll
      0000002BH   PUBLIC    IDATA    INT       Last_Thro
      00000029H   PUBLIC    IDATA    INT       Last_Roll
      00000027H   PUBLIC    IDATA    INT       battery
      0100284CH   PUBLIC    CODE     ---       timer0_int
      01000E63H   PUBLIC    CODE     ---       main
      010019C9H   PUBLIC    CODE     ---       smalladjust
      01002278H   PUBLIC    CODE     ---       pinINIT
      01001E1AH   PUBLIC    CODE     ---       choose_mode
      01001603H   PUBLIC    CODE     ---       menu_choose
      01002ED0H   PUBLIC    CODE     ---       choose_menu
      01002CA0H   PUBLIC    CODE     ---       main_menu
      01002C59H   PUBLIC    CODE     ---       ShowLogo
      01000046H   PUBLIC    CODE     ---       ShowThroAtten
      0200012EH   PUBLIC    XDATA    BYTE      ?_ShowStatus_menu?BYTE
LX51 LINKER/LOCATER V4.66.1.0                                                         09/21/2015  00:52:51  PAGE 18


      01001B61H   PUBLIC    CODE     ---       _ShowStatus_menu
      01001800H   PUBLIC    CODE     ---       _ShowData_menu
      01002466H   PUBLIC    CODE     ---       printGYO
      01001CE7H   PUBLIC    CODE     ---       printACC
      01002F36H   PUBLIC    CODE     ---       showChoice
      01002546H   PUBLIC    CODE     ---       printPWM
      000000E0H.7 SFRSYM    DATA     BIT       ACC7
      000000D8H.2 SFRSYM    DATA     BIT       CCF2
      00000092H   SFRSYM    DATA     BYTE      P1M0
      00000093H   SFRSYM    DATA     BYTE      P0M1
      00000096H   SFRSYM    DATA     BYTE      P2M0
      00000091H   SFRSYM    DATA     BYTE      P1M1
      00000080H   SFRSYM    DATA     BYTE      P0
      000000B2H   SFRSYM    DATA     BYTE      P3M0
      00000095H   SFRSYM    DATA     BYTE      P2M1
      00000090H   SFRSYM    DATA     BYTE      P1
      000000B4H   SFRSYM    DATA     BYTE      P4M0
      000000B1H   SFRSYM    DATA     BYTE      P3M1
      000000A0H   SFRSYM    DATA     BYTE      P2
      000000ABH   SFRSYM    DATA     BYTE      WKTCH
      000000CAH   SFRSYM    DATA     BYTE      P5M0
      000000B3H   SFRSYM    DATA     BYTE      P4M1
      000000B0H   SFRSYM    DATA     BYTE      P3
      000000CCH   SFRSYM    DATA     BYTE      P6M0
      000000C9H   SFRSYM    DATA     BYTE      P5M1
      000000C0H   SFRSYM    DATA     BYTE      P4
      000000D0H.6 SFRSYM    DATA     BIT       AC
      000000F6H   SFRSYM    DATA     BYTE      PWMIF
      000000E2H   SFRSYM    DATA     BYTE      P7M0
      000000CBH   SFRSYM    DATA     BYTE      P6M1
      000000C8H   SFRSYM    DATA     BYTE      P5
      000000A8H.7 SFRSYM    DATA     BIT       EA
      000000E1H   SFRSYM    DATA     BYTE      P7M1
      000000E8H   SFRSYM    DATA     BYTE      P6
      000000A0H.1 SFRSYM    DATA     BIT       P_24L01_SCK
      000000AAH   SFRSYM    DATA     BYTE      WKTCL
      000000F8H   SFRSYM    DATA     BYTE      P7
      000000A0H   SFRSYM    DATA     BIT       CE
      000000CEH   SFRSYM    DATA     BYTE      SPCTL
      00000090H.3 SFRSYM    DATA     BIT       Rom_OUT
      000000D8H.7 SFRSYM    DATA     BIT       CF
      000000C0H.4 SFRSYM    DATA     BIT       P_24L01_CSN
      000000F5H   SFRSYM    DATA     BYTE      PWMCR
      000000F9H   SFRSYM    DATA     BYTE      CH
      000000A2H   SFRSYM    DATA     BYTE      P_SW1
      000000BAH   SFRSYM    DATA     BYTE      P_SW2
      000000A8H.5 SFRSYM    DATA     BIT       EADC
      000000A8H   SFRSYM    DATA     BYTE      IE
      000000E9H   SFRSYM    DATA     BYTE      CL
      000000C5H   SFRSYM    DATA     BYTE      IAP_CMD
      000000FAH   SFRSYM    DATA     BYTE      CCAP0H
      000000B0H.2 SFRSYM    DATA     BIT       P_24L01_IRQ
      000000FBH   SFRSYM    DATA     BYTE      CCAP1H
      000000FCH   SFRSYM    DATA     BYTE      CCAP2H
      000000BDH   SFRSYM    DATA     BYTE      ADC_RES
      000000EAH   SFRSYM    DATA     BYTE      CCAP0L
      000000D8H.6 SFRSYM    DATA     BIT       CR
      000000F7H   SFRSYM    DATA     BYTE      PWMFDCR
      000000EBH   SFRSYM    DATA     BYTE      CCAP1L
      000000DAH   SFRSYM    DATA     BYTE      CCAPM0
      000000ECH   SFRSYM    DATA     BYTE      CCAP2L
      000000DBH   SFRSYM    DATA     BYTE      CCAPM1
      000000DCH   SFRSYM    DATA     BYTE      CCAPM2
      000000A8H.4 SFRSYM    DATA     BIT       ES
      000000B8H.5 SFRSYM    DATA     BIT       PADC
LX51 LINKER/LOCATER V4.66.1.0                                                         09/21/2015  00:52:51  PAGE 19


      000000B8H   SFRSYM    DATA     BYTE      IP
      00000098H   SFRSYM    DATA     BIT       RI
      000000D0H.7 SFRSYM    DATA     BIT       CY
      00000098H.1 SFRSYM    DATA     BIT       TI
      00000097H   SFRSYM    DATA     BYTE      CLK_DIV
      000000C3H   SFRSYM    DATA     BYTE      IAP_ADDRH
      000000B8H.4 SFRSYM    DATA     BIT       PS
      00000081H   SFRSYM    DATA     BYTE      SP
      000000D9H   SFRSYM    DATA     BYTE      CMOD
      000000D8H   SFRSYM    DATA     BYTE      CCON
      000000C4H   SFRSYM    DATA     BYTE      IAP_ADDRL
      000000B8H.7 SFRSYM    DATA     BIT       PPCA
      000000D0H.2 SFRSYM    DATA     BIT       OV
      00000090H.5 SFRSYM    DATA     BIT       Rom_CS
      00000090H.2 SFRSYM    DATA     BIT       Rom_IN
      000000E6H   SFRSYM    DATA     BYTE      CMPCR1
      000000E7H   SFRSYM    DATA     BYTE      CMPCR2
      000000A8H.6 SFRSYM    DATA     BIT       ELVD
      000000A0H   SFRSYM    DATA     BIT       P_24L01_CE
      00000080H   SFRSYM    DATA     BIT       P00
      000000BCH   SFRSYM    DATA     BYTE      ADC_CONTR
      00000099H   SFRSYM    DATA     BYTE      SBUF
      00000087H   SFRSYM    DATA     BYTE      PCON
      00000090H   SFRSYM    DATA     BIT       P10
      00000080H.1 SFRSYM    DATA     BIT       P01
      000000A0H   SFRSYM    DATA     BIT       P20
      00000090H.1 SFRSYM    DATA     BIT       P11
      00000080H.2 SFRSYM    DATA     BIT       P02
      000000B0H   SFRSYM    DATA     BIT       P30
      000000A0H.1 SFRSYM    DATA     BIT       P21
      00000090H.2 SFRSYM    DATA     BIT       P12
      00000080H.3 SFRSYM    DATA     BIT       P03
      00000098H   SFRSYM    DATA     BYTE      SCON
      000000C0H   SFRSYM    DATA     BIT       P40
      000000B0H.1 SFRSYM    DATA     BIT       P31
      000000A0H.2 SFRSYM    DATA     BIT       P22
      00000090H.3 SFRSYM    DATA     BIT       P13
      00000080H.4 SFRSYM    DATA     BIT       P04
      00000089H   SFRSYM    DATA     BYTE      TMOD
      00000088H   SFRSYM    DATA     BYTE      TCON
      000000C8H   SFRSYM    DATA     BIT       P50
      000000C0H.1 SFRSYM    DATA     BIT       P41
      000000B0H.2 SFRSYM    DATA     BIT       P32
      000000A0H.3 SFRSYM    DATA     BIT       P23
      00000090H.4 SFRSYM    DATA     BIT       P14
      00000080H.5 SFRSYM    DATA     BIT       P05
      000000E8H   SFRSYM    DATA     BIT       P60
      000000C8H.1 SFRSYM    DATA     BIT       P51
      000000C0H.2 SFRSYM    DATA     BIT       P42
      000000B0H.3 SFRSYM    DATA     BIT       P33
      000000A0H.4 SFRSYM    DATA     BIT       P24
      00000090H.5 SFRSYM    DATA     BIT       P15
      00000080H.6 SFRSYM    DATA     BIT       P06
      000000B8H.6 SFRSYM    DATA     BIT       PLVD
      000000F8H   SFRSYM    DATA     BIT       P70
      000000E8H.1 SFRSYM    DATA     BIT       P61
      000000C8H.2 SFRSYM    DATA     BIT       P52
      000000C0H.3 SFRSYM    DATA     BIT       P43
      000000B0H.4 SFRSYM    DATA     BIT       P34
      000000A0H.5 SFRSYM    DATA     BIT       P25
      00000090H.6 SFRSYM    DATA     BIT       P16
      00000080H.7 SFRSYM    DATA     BIT       P07
      000000F8H.1 SFRSYM    DATA     BIT       P71
      000000E8H.2 SFRSYM    DATA     BIT       P62
      000000C8H.3 SFRSYM    DATA     BIT       P53
LX51 LINKER/LOCATER V4.66.1.0                                                         09/21/2015  00:52:51  PAGE 20


      000000C0H.4 SFRSYM    DATA     BIT       P44
      000000B0H.5 SFRSYM    DATA     BIT       P35
      000000A0H.6 SFRSYM    DATA     BIT       P26
      00000090H.7 SFRSYM    DATA     BIT       P17
      000000A0H.2 SFRSYM    DATA     BIT       MISO
      000000A0H.3 SFRSYM    DATA     BIT       MOSI
      000000F8H.2 SFRSYM    DATA     BIT       P72
      000000E8H.3 SFRSYM    DATA     BIT       P63
      000000C8H.4 SFRSYM    DATA     BIT       P54
      000000C0H.5 SFRSYM    DATA     BIT       P45
      000000B0H.6 SFRSYM    DATA     BIT       P36
      000000A0H.7 SFRSYM    DATA     BIT       P27
      000000F8H.3 SFRSYM    DATA     BIT       P73
      000000E8H.4 SFRSYM    DATA     BIT       P64
      000000C8H.5 SFRSYM    DATA     BIT       P55
      000000C0H.6 SFRSYM    DATA     BIT       P46
      000000B0H.7 SFRSYM    DATA     BIT       P37
      000000F8H.4 SFRSYM    DATA     BIT       P74
      000000E8H.5 SFRSYM    DATA     BIT       P65
      000000C8H.6 SFRSYM    DATA     BIT       P56
      000000C0H.7 SFRSYM    DATA     BIT       P47
      000000F8H.5 SFRSYM    DATA     BIT       P75
      000000E8H.6 SFRSYM    DATA     BIT       P66
      000000C8H.7 SFRSYM    DATA     BIT       P57
      000000F8H.6 SFRSYM    DATA     BIT       P76
      000000E8H.7 SFRSYM    DATA     BIT       P67
      00000088H.1 SFRSYM    DATA     BIT       IE0
      000000A1H   SFRSYM    DATA     BYTE      BUS_SPEED
      000000F8H.7 SFRSYM    DATA     BIT       P77
      00000088H.3 SFRSYM    DATA     BIT       IE1
      000000AFH   SFRSYM    DATA     BYTE      IE2
      0000008EH   SFRSYM    DATA     BYTE      AUXR
      000000F0H   SFRSYM    DATA     BYTE      B
      000000C7H   SFRSYM    DATA     BYTE      IAP_CONTR
      000000F1H   SFRSYM    DATA     BYTE      PWMCFG
      000000E0H   SFRSYM    DATA     BYTE      ACC
      000000A8H.1 SFRSYM    DATA     BIT       ET0
      00000088H.5 SFRSYM    DATA     BIT       TF0
      000000A8H.3 SFRSYM    DATA     BIT       ET1
      00000088H.7 SFRSYM    DATA     BIT       TF1
      000000B5H   SFRSYM    DATA     BYTE      IP2
      00000098H.2 SFRSYM    DATA     BIT       RB8
      0000008CH   SFRSYM    DATA     BYTE      TH0
      0000008DH   SFRSYM    DATA     BYTE      TH1
      00000088H   SFRSYM    DATA     BIT       IT0
      000000A8H   SFRSYM    DATA     BIT       EX0
      00000098H.3 SFRSYM    DATA     BIT       TB8
      000000D6H   SFRSYM    DATA     BYTE      T2H
      00000088H.2 SFRSYM    DATA     BIT       IT1
      000000A8H.2 SFRSYM    DATA     BIT       EX1
      000000D4H   SFRSYM    DATA     BYTE      T3H
      000000D0H   SFRSYM    DATA     BIT       P
      00000098H.7 SFRSYM    DATA     BIT       SM0
      000000D2H   SFRSYM    DATA     BYTE      T4H
      0000008AH   SFRSYM    DATA     BYTE      TL0
      00000098H.6 SFRSYM    DATA     BIT       SM1
      0000008BH   SFRSYM    DATA     BYTE      TL1
      00000098H.5 SFRSYM    DATA     BIT       SM2
      000000D7H   SFRSYM    DATA     BYTE      T2L
      000000D5H   SFRSYM    DATA     BYTE      T3L
      000000D3H   SFRSYM    DATA     BYTE      T4L
      000000B8H.1 SFRSYM    DATA     BIT       PT0
      000000B8H.3 SFRSYM    DATA     BIT       PT1
      000000D0H.3 SFRSYM    DATA     BIT       RS0
      000000C2H   SFRSYM    DATA     BYTE      IAP_DATA
LX51 LINKER/LOCATER V4.66.1.0                                                         09/21/2015  00:52:51  PAGE 21


      00000088H.4 SFRSYM    DATA     BIT       TR0
      000000D0H.4 SFRSYM    DATA     BIT       RS1
      00000088H.6 SFRSYM    DATA     BIT       TR1
      000000C1H   SFRSYM    DATA     BYTE      WDT_CONTR
      000000B8H   SFRSYM    DATA     BIT       PX0
      000000B8H.2 SFRSYM    DATA     BIT       PX1
      000000F2H   SFRSYM    DATA     BYTE      PCA_PWM0
      000000F3H   SFRSYM    DATA     BYTE      PCA_PWM1
      000000F4H   SFRSYM    DATA     BYTE      PCA_PWM2
      0000009DH   SFRSYM    DATA     BYTE      P1ASF
      00000083H   SFRSYM    DATA     BYTE      DPH
      000000D1H   SFRSYM    DATA     BYTE      T3T4M
      000000D1H   SFRSYM    DATA     BYTE      T4T3M
      000000A0H.2 SFRSYM    DATA     BIT       P_24L01_MISO
      000000A0H.3 SFRSYM    DATA     BIT       P_24L01_MOSI
      000000BEH   SFRSYM    DATA     BYTE      ADC_RESL
      00000082H   SFRSYM    DATA     BYTE      DPL
      000000A0H.1 SFRSYM    DATA     BIT       SCK
      000000CDH   SFRSYM    DATA     BYTE      SPSTAT
      0000009BH   SFRSYM    DATA     BYTE      S2BUF
      00000097H   SFRSYM    DATA     BYTE      PCON2
      000000C0H.4 SFRSYM    DATA     BIT       CSN
      000000ADH   SFRSYM    DATA     BYTE      S3BUF
      00000085H   SFRSYM    DATA     BYTE      S4BUF
      00000098H.4 SFRSYM    DATA     BIT       REN
      0000009AH   SFRSYM    DATA     BYTE      S2CON
      000000ACH   SFRSYM    DATA     BYTE      S3CON
      00000084H   SFRSYM    DATA     BYTE      S4CON
      000000B0H.2 SFRSYM    DATA     BIT       IRQ
      000000B9H   SFRSYM    DATA     BYTE      SADEN
      000000A9H   SFRSYM    DATA     BYTE      SADDR
      00000090H.4 SFRSYM    DATA     BIT       Rom_SCK
      000000F0H   SFRSYM    DATA     BIT       B0
      000000F0H.1 SFRSYM    DATA     BIT       B1
      000000C6H   SFRSYM    DATA     BYTE      IAP_TRIG
      000000A2H   SFRSYM    DATA     BYTE      AUXR1
      000000F0H.2 SFRSYM    DATA     BIT       B2
      000000F0H.3 SFRSYM    DATA     BIT       B3
      000000F0H.4 SFRSYM    DATA     BIT       B4
      000000D0H.5 SFRSYM    DATA     BIT       F0
      000000F0H.5 SFRSYM    DATA     BIT       B5
      0000008FH   SFRSYM    DATA     BYTE      INT_CLKO
      000000F0H.6 SFRSYM    DATA     BIT       B6
      000000E0H   SFRSYM    DATA     BIT       ACC0
      000000F0H.7 SFRSYM    DATA     BIT       B7
      000000E0H.1 SFRSYM    DATA     BIT       ACC1
      000000E0H.2 SFRSYM    DATA     BIT       ACC2
      000000E0H.3 SFRSYM    DATA     BIT       ACC3
      000000D0H   SFRSYM    DATA     BYTE      PSW
      000000E0H.4 SFRSYM    DATA     BIT       ACC4
      000000E0H.5 SFRSYM    DATA     BIT       ACC5
      000000D8H   SFRSYM    DATA     BIT       CCF0
      000000E0H.6 SFRSYM    DATA     BIT       ACC6
      000000D8H.1 SFRSYM    DATA     BIT       CCF1
      000000CFH   SFRSYM    DATA     BYTE      SPDAT
      00000094H   SFRSYM    DATA     BYTE      P0M0
      0100215BH   SYMBOL    CODE     ---       _?ix1000
      01002166H   SYMBOL    CODE     ---       _?ix1001

      01002546H   BLOCK     CODE     ---       LVL=0
      01002546H   BLOCK     CODE     NEAR LAB  LVL=1
      0200012EH   SYMBOL    XDATA    INT       i
      02000130H   SYMBOL    XDATA    INT       ttt
      ---         BLOCKEND  ---      ---       LVL=1
      01002546H   LINE      CODE     ---       #121
LX51 LINKER/LOCATER V4.66.1.0                                                         09/21/2015  00:52:51  PAGE 22


      01002546H   LINE      CODE     ---       #122
      0100254DH   LINE      CODE     ---       #123
      01002558H   LINE      CODE     ---       #125
      0100255EH   LINE      CODE     ---       #126
      01002565H   LINE      CODE     ---       #127
      01002586H   LINE      CODE     ---       #128
      010025A1H   LINE      CODE     ---       #130
      010025D3H   LINE      CODE     ---       #131
      010025F0H   LINE      CODE     ---       #133
      010025F0H   LINE      CODE     ---       #134
      ---         BLOCKEND  ---      ---       LVL=0

      01002F36H   BLOCK     CODE     ---       LVL=0
      01002F36H   LINE      CODE     ---       #137
      01002F36H   LINE      CODE     ---       #138
      01002F3DH   LINE      CODE     ---       #139
      01002F4EH   LINE      CODE     ---       #140
      01002F55H   LINE      CODE     ---       #141
      01002F66H   LINE      CODE     ---       #142
      ---         BLOCKEND  ---      ---       LVL=0

      01001CE7H   BLOCK     CODE     ---       LVL=0
      01001CE7H   BLOCK     CODE     NEAR LAB  LVL=1
      0200012EH   SYMBOL    XDATA    INT       i
      02000130H   SYMBOL    XDATA    INT       ttt
      ---         BLOCKEND  ---      ---       LVL=1
      01001CE7H   LINE      CODE     ---       #144
      01001CE7H   LINE      CODE     ---       #145
      01001CEEH   LINE      CODE     ---       #146
      01001CF9H   LINE      CODE     ---       #148
      01001CFFH   LINE      CODE     ---       #149
      01001D06H   LINE      CODE     ---       #150
      01001D27H   LINE      CODE     ---       #151
      01001D42H   LINE      CODE     ---       #153
      01001D7EH   LINE      CODE     ---       #154
      01001D9BH   LINE      CODE     ---       #155
      01001DE4H   LINE      CODE     ---       #157
      01001DE4H   LINE      CODE     ---       #158
      01001E19H   LINE      CODE     ---       #159
      ---         BLOCKEND  ---      ---       LVL=0

      01002466H   BLOCK     CODE     ---       LVL=0
      01002466H   BLOCK     CODE     NEAR LAB  LVL=1
      0200012EH   SYMBOL    XDATA    INT       i
      02000130H   SYMBOL    XDATA    INT       ttt
      ---         BLOCKEND  ---      ---       LVL=1
      01002466H   LINE      CODE     ---       #161
      01002466H   LINE      CODE     ---       #162
      0100246DH   LINE      CODE     ---       #163
      01002478H   LINE      CODE     ---       #165
      0100247EH   LINE      CODE     ---       #166
      01002485H   LINE      CODE     ---       #167
      010024A6H   LINE      CODE     ---       #168
      010024C1H   LINE      CODE     ---       #170
      010024F3H   LINE      CODE     ---       #171
      01002510H   LINE      CODE     ---       #173
      01002510H   LINE      CODE     ---       #174
      01002545H   LINE      CODE     ---       #175
      ---         BLOCKEND  ---      ---       LVL=0

      01001800H   BLOCK     CODE     ---       LVL=0
      0200012EH   SYMBOL    XDATA    BYTE      choice
      01001805H   BLOCK     CODE     NEAR LAB  LVL=1
      0200012FH   SYMBOL    XDATA    ---       tmp
      0200013AH   SYMBOL    XDATA    INT       i
LX51 LINKER/LOCATER V4.66.1.0                                                         09/21/2015  00:52:51  PAGE 23


      0200013CH   SYMBOL    XDATA    INT       count
      ---         BLOCKEND  ---      ---       LVL=1
      01001800H   LINE      CODE     ---       #177
      01001805H   LINE      CODE     ---       #178
      01001805H   LINE      CODE     ---       #179
      01001818H   LINE      CODE     ---       #180
      0100181FH   LINE      CODE     ---       #181
      01001823H   LINE      CODE     ---       #183
      01001826H   LINE      CODE     ---       #184
      01001832H   LINE      CODE     ---       #185
      01001835H   LINE      CODE     ---       #186
      0100183CH   LINE      CODE     ---       #187
      0100183CH   LINE      CODE     ---       #188
      0100184AH   LINE      CODE     ---       #190
      01001850H   LINE      CODE     ---       #191
      0100185FH   LINE      CODE     ---       #192
      01001870H   LINE      CODE     ---       #193
      01001881H   LINE      CODE     ---       #194
      01001887H   LINE      CODE     ---       #195
      01001887H   LINE      CODE     ---       #196
      01001892H   LINE      CODE     ---       #197
      010018A1H   LINE      CODE     ---       #198
      010018B2H   LINE      CODE     ---       #199
      010018C3H   LINE      CODE     ---       #200
      010018CCH   LINE      CODE     ---       #201
      010018D6H   LINE      CODE     ---       #202
      010018E5H   LINE      CODE     ---       #203
      010018F6H   LINE      CODE     ---       #204
      01001907H   LINE      CODE     ---       #205
      01001918H   LINE      CODE     ---       #206
      01001921H   LINE      CODE     ---       #207
      01001921H   LINE      CODE     ---       #209
      01001946H   LINE      CODE     ---       #210
      01001987H   LINE      CODE     ---       #211
      010019A8H   LINE      CODE     ---       #212
      010019B7H   LINE      CODE     ---       #213
      010019C8H   LINE      CODE     ---       #214
      ---         BLOCKEND  ---      ---       LVL=0

      01001B61H   BLOCK     CODE     ---       LVL=0
      0200012EH   SYMBOL    XDATA    INT       Thro
      02000130H   SYMBOL    XDATA    INT       Yaw
      02000132H   SYMBOL    XDATA    INT       Pitch
      02000134H   SYMBOL    XDATA    INT       Roll
      01001B75H   BLOCK     CODE     NEAR LAB  LVL=1
      02000136H   SYMBOL    XDATA    ---       tmp
      ---         BLOCKEND  ---      ---       LVL=1
      01001B61H   LINE      CODE     ---       #216
      01001B75H   LINE      CODE     ---       #217
      01001B75H   LINE      CODE     ---       #218
      01001B88H   LINE      CODE     ---       #220
      01001B8BH   LINE      CODE     ---       #221
      01001B9CH   LINE      CODE     ---       #222
      01001BADH   LINE      CODE     ---       #223
      01001BBEH   LINE      CODE     ---       #224
      01001BCFH   LINE      CODE     ---       #226
      01001BF5H   LINE      CODE     ---       #227
      01001C06H   LINE      CODE     ---       #228
      01001C15H   LINE      CODE     ---       #230
      01001C3BH   LINE      CODE     ---       #231
      01001C4CH   LINE      CODE     ---       #232
      01001C5BH   LINE      CODE     ---       #234
      01001C81H   LINE      CODE     ---       #235
      01001C92H   LINE      CODE     ---       #236
      01001CA1H   LINE      CODE     ---       #238
LX51 LINKER/LOCATER V4.66.1.0                                                         09/21/2015  00:52:51  PAGE 24


      01001CC7H   LINE      CODE     ---       #239
      01001CD8H   LINE      CODE     ---       #240
      ---         BLOCKEND  ---      ---       LVL=0

      01000046H   BLOCK     CODE     ---       LVL=0
      01000046H   LINE      CODE     ---       #244
      01000046H   LINE      CODE     ---       #245
      01000057H   LINE      CODE     ---       #246
      01000068H   LINE      CODE     ---       #247
      01000079H   LINE      CODE     ---       #248
      ---         BLOCKEND  ---      ---       LVL=0

      01002C59H   BLOCK     CODE     ---       LVL=0
      01002C59H   LINE      CODE     ---       #260
      01002C59H   LINE      CODE     ---       #261
      01002C5CH   LINE      CODE     ---       #262
      01002C6DH   LINE      CODE     ---       #263
      01002C7EH   LINE      CODE     ---       #264
      01002C8FH   LINE      CODE     ---       #265
      ---         BLOCKEND  ---      ---       LVL=0

      01002CA0H   BLOCK     CODE     ---       LVL=0
      01002CA0H   LINE      CODE     ---       #268
      01002CA0H   LINE      CODE     ---       #269
      01002CA0H   LINE      CODE     ---       #270
      01002CA3H   LINE      CODE     ---       #271
      01002CB4H   LINE      CODE     ---       #272
      01002CC5H   LINE      CODE     ---       #273
      01002CD6H   LINE      CODE     ---       #274
      ---         BLOCKEND  ---      ---       LVL=0

      01002ED0H   BLOCK     CODE     ---       LVL=0
      01002ED0H   LINE      CODE     ---       #277
      01002ED0H   LINE      CODE     ---       #278
      01002ED0H   LINE      CODE     ---       #279
      01002EE1H   LINE      CODE     ---       #280
      01002EF2H   LINE      CODE     ---       #281
      ---         BLOCKEND  ---      ---       LVL=0

      01001603H   BLOCK     CODE     ---       LVL=0
      01001603H   LINE      CODE     ---       #284
      01001603H   LINE      CODE     ---       #285
      01001609H   LINE      CODE     ---       #286
      0100160CH   LINE      CODE     ---       #287
      01001617H   LINE      CODE     ---       #288
      01001622H   LINE      CODE     ---       #289
      0100162DH   LINE      CODE     ---       #290
      0100163EH   LINE      CODE     ---       #291
      0100163EH   LINE      CODE     ---       #292
      01001646H   LINE      CODE     ---       #293
      01001652H   LINE      CODE     ---       #294
      0100165AH   LINE      CODE     ---       #295
      0100166DH   LINE      CODE     ---       #296
      0100166DH   LINE      CODE     ---       #297
      01001678H   LINE      CODE     ---       #298
      01001683H   LINE      CODE     ---       #299
      01001685H   LINE      CODE     ---       #300
      01001685H   LINE      CODE     ---       #301
      01001685H   LINE      CODE     ---       #302
      010016A9H   LINE      CODE     ---       #303
      010016A9H   LINE      CODE     ---       #304
      010016ACH   LINE      CODE     ---       #305
      010016ACH   LINE      CODE     ---       #306
      010016B4H   LINE      CODE     ---       #307
      010016C0H   LINE      CODE     ---       #308
LX51 LINKER/LOCATER V4.66.1.0                                                         09/21/2015  00:52:51  PAGE 25


      010016C8H   LINE      CODE     ---       #309
      010016DBH   LINE      CODE     ---       #310
      010016E6H   LINE      CODE     ---       #311
      010016F1H   LINE      CODE     ---       #312
      010016F3H   LINE      CODE     ---       #313
      010016F3H   LINE      CODE     ---       #314
      010016FBH   LINE      CODE     ---       #315
      010016FBH   LINE      CODE     ---       #316
      010016FBH   LINE      CODE     ---       #317
      010016FEH   LINE      CODE     ---       #318
      01001729H   LINE      CODE     ---       #319
      01001734H   LINE      CODE     ---       #320
      0100173FH   LINE      CODE     ---       #321
      0100174AH   LINE      CODE     ---       #322
      01001753H   LINE      CODE     ---       #323
      01001753H   LINE      CODE     ---       #324
      01001756H   LINE      CODE     ---       #325
      01001756H   LINE      CODE     ---       #326
      01001759H   LINE      CODE     ---       #327
      01001759H   LINE      CODE     ---       #328
      01001759H   LINE      CODE     ---       #329
      01001759H   LINE      CODE     ---       #330
      0100175CH   LINE      CODE     ---       #331
      0100175FH   LINE      CODE     ---       #332
      01001764H   LINE      CODE     ---       #333
      0100176FH   LINE      CODE     ---       #334
      0100177AH   LINE      CODE     ---       #335
      01001785H   LINE      CODE     ---       #336
      0100178BH   LINE      CODE     ---       #337
      0100178BH   LINE      CODE     ---       #338
      0100178EH   LINE      CODE     ---       #339
      0100178EH   LINE      CODE     ---       #340
      01001790H   LINE      CODE     ---       #341
      01001790H   LINE      CODE     ---       #342
      01001790H   LINE      CODE     ---       #343
      01001790H   LINE      CODE     ---       #344
      01001793H   LINE      CODE     ---       #345
      01001796H   LINE      CODE     ---       #346
      0100179BH   LINE      CODE     ---       #347
      010017A6H   LINE      CODE     ---       #348
      010017B1H   LINE      CODE     ---       #349
      010017BCH   LINE      CODE     ---       #350
      010017C2H   LINE      CODE     ---       #351
      010017C2H   LINE      CODE     ---       #352
      010017C5H   LINE      CODE     ---       #353
      010017C5H   LINE      CODE     ---       #354
      010017C7H   LINE      CODE     ---       #355
      010017C7H   LINE      CODE     ---       #356
      010017C7H   LINE      CODE     ---       #357
      010017C7H   LINE      CODE     ---       #358
      010017CAH   LINE      CODE     ---       #359
      010017CDH   LINE      CODE     ---       #360
      010017D2H   LINE      CODE     ---       #361
      010017DDH   LINE      CODE     ---       #362
      010017E8H   LINE      CODE     ---       #363
      010017F3H   LINE      CODE     ---       #364
      010017F9H   LINE      CODE     ---       #365
      010017F9H   LINE      CODE     ---       #366
      010017FCH   LINE      CODE     ---       #367
      010017FFH   LINE      CODE     ---       #368
      010017FFH   LINE      CODE     ---       #369
      010017FFH   LINE      CODE     ---       #370
      010017FFH   LINE      CODE     ---       #371
      010017FFH   LINE      CODE     ---       #372
      010017FFH   LINE      CODE     ---       #373
LX51 LINKER/LOCATER V4.66.1.0                                                         09/21/2015  00:52:51  PAGE 26


      ---         BLOCKEND  ---      ---       LVL=0

      01001E1AH   BLOCK     CODE     ---       LVL=0
      01001E1AH   LINE      CODE     ---       #375
      01001E1AH   LINE      CODE     ---       #376
      01001E20H   LINE      CODE     ---       #377
      01001E20H   LINE      CODE     ---       #378
      01001E23H   LINE      CODE     ---       #379
      01001E2EH   LINE      CODE     ---       #380
      01001E39H   LINE      CODE     ---       #381
      01001E44H   LINE      CODE     ---       #382
      01001E55H   LINE      CODE     ---       #383
      01001E55H   LINE      CODE     ---       #384
      01001E55H   LINE      CODE     ---       #386
      01001E5DH   LINE      CODE     ---       #387
      01001E69H   LINE      CODE     ---       #388
      01001E71H   LINE      CODE     ---       #389
      01001E84H   LINE      CODE     ---       #390
      01001E8FH   LINE      CODE     ---       #391
      01001E9AH   LINE      CODE     ---       #392
      01001E9CH   LINE      CODE     ---       #393
      01001E9CH   LINE      CODE     ---       #394
      01001E9CH   LINE      CODE     ---       #396
      01001EC0H   LINE      CODE     ---       #397
      01001EC3H   LINE      CODE     ---       #398
      01001EC5H   LINE      CODE     ---       #399
      01001EC5H   LINE      CODE     ---       #401
      01001ECDH   LINE      CODE     ---       #402
      01001ED9H   LINE      CODE     ---       #403
      01001EE1H   LINE      CODE     ---       #404
      01001EF1H   LINE      CODE     ---       #405
      01001EFCH   LINE      CODE     ---       #406
      01001F07H   LINE      CODE     ---       #407
      01001F09H   LINE      CODE     ---       #408
      01001F09H   LINE      CODE     ---       #409
      01001F09H   LINE      CODE     ---       #410
      01001F11H   LINE      CODE     ---       #411
      01001F11H   LINE      CODE     ---       #412
      01001F11H   LINE      CODE     ---       #414
      01001F11H   LINE      CODE     ---       #415
      01001F14H   LINE      CODE     ---       #416
      01001F1AH   LINE      CODE     ---       #417
      01001F1EH   LINE      CODE     ---       #418
      01001F29H   LINE      CODE     ---       #419
      01001F29H   LINE      CODE     ---       #420
      01001F2CH   LINE      CODE     ---       #421
      01001F32H   LINE      CODE     ---       #422
      01001F36H   LINE      CODE     ---       #423
      01001F41H   LINE      CODE     ---       #424
      01001F41H   LINE      CODE     ---       #425
      ---         BLOCKEND  ---      ---       LVL=0

      01002278H   BLOCK     CODE     ---       LVL=0
      01002278H   LINE      CODE     ---       #427
      01002278H   LINE      CODE     ---       #428
      0100228BH   LINE      CODE     ---       #429
      01002292H   LINE      CODE     ---       #430
      01002299H   LINE      CODE     ---       #431
      010022A0H   LINE      CODE     ---       #432
      010022A7H   LINE      CODE     ---       #433
      010022AEH   LINE      CODE     ---       #434
      010022B5H   LINE      CODE     ---       #436
      010022BAH   LINE      CODE     ---       #437
      010022BFH   LINE      CODE     ---       #438
      010022C2H   LINE      CODE     ---       #439
LX51 LINKER/LOCATER V4.66.1.0                                                         09/21/2015  00:52:51  PAGE 27


      010022C7H   LINE      CODE     ---       #440
      010022CCH   LINE      CODE     ---       #442
      010022D3H   LINE      CODE     ---       #443
      010022DAH   LINE      CODE     ---       #444
      010022E1H   LINE      CODE     ---       #445
      010022E8H   LINE      CODE     ---       #447
      010022EFH   LINE      CODE     ---       #448
      010022F6H   LINE      CODE     ---       #449
      010022FDH   LINE      CODE     ---       #450
      01002304H   LINE      CODE     ---       #452
      0100230BH   LINE      CODE     ---       #453
      01002312H   LINE      CODE     ---       #454
      01002319H   LINE      CODE     ---       #455
      01002320H   LINE      CODE     ---       #456
      01002327H   LINE      CODE     ---       #457
      0100232EH   LINE      CODE     ---       #460
      01002335H   LINE      CODE     ---       #461
      0100233CH   LINE      CODE     ---       #462
      01002343H   LINE      CODE     ---       #463
      0100234AH   LINE      CODE     ---       #464
      01002351H   LINE      CODE     ---       #466
      01002358H   LINE      CODE     ---       #467
      0100235FH   LINE      CODE     ---       #468
      01002366H   LINE      CODE     ---       #470
      0100236DH   LINE      CODE     ---       #471
      01002374H   LINE      CODE     ---       #472
      0100237BH   LINE      CODE     ---       #474
      ---         BLOCKEND  ---      ---       LVL=0

      010019C9H   BLOCK     CODE     ---       LVL=0
      010019C9H   LINE      CODE     ---       #477
      010019C9H   LINE      CODE     ---       #480
      010019D1H   LINE      CODE     ---       #482
      010019D7H   LINE      CODE     ---       #483
      010019E0H   LINE      CODE     ---       #484
      010019E8H   LINE      CODE     ---       #485
      010019EDH   LINE      CODE     ---       #486
      010019F4H   LINE      CODE     ---       #488
      010019FCH   LINE      CODE     ---       #490
      01001A02H   LINE      CODE     ---       #491
      01001A0AH   LINE      CODE     ---       #492
      01001A12H   LINE      CODE     ---       #493
      01001A17H   LINE      CODE     ---       #494
      01001A1EH   LINE      CODE     ---       #496
      01001A26H   LINE      CODE     ---       #498
      01001A2CH   LINE      CODE     ---       #499
      01001A35H   LINE      CODE     ---       #500
      01001A3DH   LINE      CODE     ---       #501
      01001A42H   LINE      CODE     ---       #502
      01001A49H   LINE      CODE     ---       #504
      01001A51H   LINE      CODE     ---       #506
      01001A57H   LINE      CODE     ---       #507
      01001A60H   LINE      CODE     ---       #508
      01001A68H   LINE      CODE     ---       #509
      01001A6DH   LINE      CODE     ---       #510
      01001A74H   LINE      CODE     ---       #512
      01001A7FH   LINE      CODE     ---       #513
      01001A8AH   LINE      CODE     ---       #514
      01001A95H   LINE      CODE     ---       #516
      01001AABH   LINE      CODE     ---       #518
      01001AABH   LINE      CODE     ---       #519
      01001AB1H   LINE      CODE     ---       #520
      01001AC4H   LINE      CODE     ---       #521
      01001ACFH   LINE      CODE     ---       #522
      01001ADAH   LINE      CODE     ---       #523
LX51 LINKER/LOCATER V4.66.1.0                                                         09/21/2015  00:52:51  PAGE 28


      01001ADCH   LINE      CODE     ---       #524
      01001ADCH   LINE      CODE     ---       #526
      01001ADCH   LINE      CODE     ---       #527
      01001AE2H   LINE      CODE     ---       #528
      01001AF2H   LINE      CODE     ---       #529
      01001AFDH   LINE      CODE     ---       #530
      01001B08H   LINE      CODE     ---       #531
      01001B0AH   LINE      CODE     ---       #532
      01001B0AH   LINE      CODE     ---       #534
      01001B0AH   LINE      CODE     ---       #535
      01001B10H   LINE      CODE     ---       #536
      01001B20H   LINE      CODE     ---       #537
      01001B2BH   LINE      CODE     ---       #538
      01001B2DH   LINE      CODE     ---       #539
      01001B2DH   LINE      CODE     ---       #541
      01001B2DH   LINE      CODE     ---       #542
      01001B33H   LINE      CODE     ---       #543
      01001B43H   LINE      CODE     ---       #544
      01001B4EH   LINE      CODE     ---       #545
      01001B59H   LINE      CODE     ---       #546
      01001B5BH   LINE      CODE     ---       #547
      01001B5BH   LINE      CODE     ---       #548
      01001B5BH   LINE      CODE     ---       #549
      01001B60H   LINE      CODE     ---       #550
      01001B60H   LINE      CODE     ---       #551
      ---         BLOCKEND  ---      ---       LVL=0

      01000E63H   BLOCK     CODE     ---       LVL=0
      01000E63H   LINE      CODE     ---       #553
      01000E63H   LINE      CODE     ---       #554
      01000E63H   LINE      CODE     ---       #555
      01000E66H   LINE      CODE     ---       #558
      01000E69H   LINE      CODE     ---       #559
      01000E6CH   LINE      CODE     ---       #560
      01000E77H   LINE      CODE     ---       #561
      01000E7AH   LINE      CODE     ---       #564
      01000E93H   LINE      CODE     ---       #565
      01000EACH   LINE      CODE     ---       #566
      01000EC5H   LINE      CODE     ---       #567
      01000ECAH   LINE      CODE     ---       #568
      01000ED1H   LINE      CODE     ---       #572
      01000ED4H   LINE      CODE     ---       #573
      01000EDAH   LINE      CODE     ---       #574
      01000EE0H   LINE      CODE     ---       #575
      01000EE3H   LINE      CODE     ---       #576
      01000EE5H   LINE      CODE     ---       #578
      01000EE8H   LINE      CODE     ---       #579
      01000EEEH   LINE      CODE     ---       #590
      01000EEEH   LINE      CODE     ---       #592
      01000F03H   LINE      CODE     ---       #593
      01000F18H   LINE      CODE     ---       #594
      01000F2DH   LINE      CODE     ---       #595
      01000F42H   LINE      CODE     ---       #596
      01000F4EH   LINE      CODE     ---       #598
      01000F5AH   LINE      CODE     ---       #599
      01000F61H   LINE      CODE     ---       #600
      01000F63H   LINE      CODE     ---       #601
      01000F65H   LINE      CODE     ---       #602
      01000F6CH   LINE      CODE     ---       #603
      01000F73H   LINE      CODE     ---       #604
      01000F73H   LINE      CODE     ---       #606
      01000F79H   LINE      CODE     ---       #607
      01000F7DH   LINE      CODE     ---       #608
      01000F7FH   LINE      CODE     ---       #609
      01000F81H   LINE      CODE     ---       #611
LX51 LINKER/LOCATER V4.66.1.0                                                         09/21/2015  00:52:51  PAGE 29


      01000F84H   LINE      CODE     ---       #614
      01000F95H   LINE      CODE     ---       #616
      01000F9BH   LINE      CODE     ---       #617
      01000F9EH   LINE      CODE     ---       #618
      01000FA3H   LINE      CODE     ---       #619
      01000FA3H   LINE      CODE     ---       #621
      01000FA3H   LINE      CODE     ---       #622
      01000FB8H   LINE      CODE     ---       #623
      01000FCDH   LINE      CODE     ---       #624
      01000FE2H   LINE      CODE     ---       #625
      01000FF7H   LINE      CODE     ---       #626
      01001003H   LINE      CODE     ---       #629
      01001006H   LINE      CODE     ---       #631
      01001014H   LINE      CODE     ---       #632
      01001018H   LINE      CODE     ---       #633
      01001026H   LINE      CODE     ---       #634
      0100102DH   LINE      CODE     ---       #640
      0100104DH   LINE      CODE     ---       #641
      0100106CH   LINE      CODE     ---       #642
      01001079H   LINE      CODE     ---       #644
      01001099H   LINE      CODE     ---       #645
      010010B8H   LINE      CODE     ---       #646
      010010C5H   LINE      CODE     ---       #648
      010010E5H   LINE      CODE     ---       #649
      01001104H   LINE      CODE     ---       #650
      01001111H   LINE      CODE     ---       #652
      01001118H   LINE      CODE     ---       #655
      01001120H   LINE      CODE     ---       #656
      01001129H   LINE      CODE     ---       #657
      0100112FH   LINE      CODE     ---       #658
      01001137H   LINE      CODE     ---       #659
      0100113CH   LINE      CODE     ---       #660
      01001143H   LINE      CODE     ---       #663
      0100114BH   LINE      CODE     ---       #664
      01001154H   LINE      CODE     ---       #665
      0100115AH   LINE      CODE     ---       #666
      01001162H   LINE      CODE     ---       #667
      01001167H   LINE      CODE     ---       #668
      0100116EH   LINE      CODE     ---       #671
      01001171H   LINE      CODE     ---       #673
      01001177H   LINE      CODE     ---       #674
      ---         BLOCKEND  ---      ---       LVL=0

      0100284CH   BLOCK     CODE     ---       LVL=0
      01002869H   BLOCK     CODE     NEAR LAB  LVL=1
      00000007H   SYMBOL    DATA     BYTE      n
      ---         BLOCKEND  ---      ---       LVL=1
      0100284CH   LINE      CODE     ---       #679
      01002869H   LINE      CODE     ---       #681
      0100286BH   LINE      CODE     ---       #682
      01002871H   LINE      CODE     ---       #683
      01002875H   LINE      CODE     ---       #684
      01002876H   LINE      CODE     ---       #685
      0100288DH   LINE      CODE     ---       #686
      01002896H   LINE      CODE     ---       #687
      01002898H   LINE      CODE     ---       #688
      010028A2H   LINE      CODE     ---       #689
      010028A7H   LINE      CODE     ---       #690
      010028A9H   LINE      CODE     ---       #691
      010028B2H   LINE      CODE     ---       #692
      010028BAH   LINE      CODE     ---       #693
      010028BDH   LINE      CODE     ---       #694
      010028BDH   LINE      CODE     ---       #695
      ---         BLOCKEND  ---      ---       LVL=0

LX51 LINKER/LOCATER V4.66.1.0                                                         09/21/2015  00:52:51  PAGE 30


      ---         MODULE    ---      ---       GPIO
      01003795H   PUBLIC    CONST    ---       digital_pin_mode_PxM0_PGM
      01003775H   PUBLIC    CONST    ---       digital_pin_mode_PxM1_PGM
      01003735H   PUBLIC    CONST    ---       digital_pin_to_port_PGM
      010036F5H   PUBLIC    CONST    ---       digital_pin_to_bit_PGM
      010036B5H   PUBLIC    CONST    ---       digital_pin_to_bit_mask_PGM
      01002DECH   PUBLIC    CODE     ---       _noTone
      010013DFH   PUBLIC    CODE     ---       _tone
      0100273CH   PUBLIC    CODE     ---       _digitalRead
      01002699H   PUBLIC    CODE     ---       _digitalWrite
      0100237EH   PUBLIC    CODE     ---       _pinMode
      000000D8H.2 SFRSYM    DATA     BIT       CCF2
      00000092H   SFRSYM    DATA     BYTE      P1M0
      00000093H   SFRSYM    DATA     BYTE      P0M1
      00000096H   SFRSYM    DATA     BYTE      P2M0
      00000091H   SFRSYM    DATA     BYTE      P1M1
      00000080H   SFRSYM    DATA     BYTE      P0
      000000B2H   SFRSYM    DATA     BYTE      P3M0
      00000095H   SFRSYM    DATA     BYTE      P2M1
      00000090H   SFRSYM    DATA     BYTE      P1
      000000B4H   SFRSYM    DATA     BYTE      P4M0
      000000B1H   SFRSYM    DATA     BYTE      P3M1
      000000A0H   SFRSYM    DATA     BYTE      P2
      000000ABH   SFRSYM    DATA     BYTE      WKTCH
      000000CAH   SFRSYM    DATA     BYTE      P5M0
      000000B3H   SFRSYM    DATA     BYTE      P4M1
      000000B0H   SFRSYM    DATA     BYTE      P3
      000000CCH   SFRSYM    DATA     BYTE      P6M0
      000000C9H   SFRSYM    DATA     BYTE      P5M1
      000000C0H   SFRSYM    DATA     BYTE      P4
      000000D0H.6 SFRSYM    DATA     BIT       AC
      000000F6H   SFRSYM    DATA     BYTE      PWMIF
      000000E2H   SFRSYM    DATA     BYTE      P7M0
      000000CBH   SFRSYM    DATA     BYTE      P6M1
      000000C8H   SFRSYM    DATA     BYTE      P5
      000000A8H.7 SFRSYM    DATA     BIT       EA
      000000E1H   SFRSYM    DATA     BYTE      P7M1
      000000E8H   SFRSYM    DATA     BYTE      P6
      000000AAH   SFRSYM    DATA     BYTE      WKTCL
      000000F8H   SFRSYM    DATA     BYTE      P7
      000000CEH   SFRSYM    DATA     BYTE      SPCTL
      000000D8H.7 SFRSYM    DATA     BIT       CF
      000000F5H   SFRSYM    DATA     BYTE      PWMCR
      000000F9H   SFRSYM    DATA     BYTE      CH
      000000A2H   SFRSYM    DATA     BYTE      P_SW1
      000000BAH   SFRSYM    DATA     BYTE      P_SW2
      000000A8H.5 SFRSYM    DATA     BIT       EADC
      000000A8H   SFRSYM    DATA     BYTE      IE
      000000E9H   SFRSYM    DATA     BYTE      CL
      000000C5H   SFRSYM    DATA     BYTE      IAP_CMD
      000000FAH   SFRSYM    DATA     BYTE      CCAP0H
      000000FBH   SFRSYM    DATA     BYTE      CCAP1H
      000000FCH   SFRSYM    DATA     BYTE      CCAP2H
      000000BDH   SFRSYM    DATA     BYTE      ADC_RES
      000000EAH   SFRSYM    DATA     BYTE      CCAP0L
      000000D8H.6 SFRSYM    DATA     BIT       CR
      000000F7H   SFRSYM    DATA     BYTE      PWMFDCR
      000000EBH   SFRSYM    DATA     BYTE      CCAP1L
      000000DAH   SFRSYM    DATA     BYTE      CCAPM0
      000000ECH   SFRSYM    DATA     BYTE      CCAP2L
      000000DBH   SFRSYM    DATA     BYTE      CCAPM1
      000000DCH   SFRSYM    DATA     BYTE      CCAPM2
      000000A8H.4 SFRSYM    DATA     BIT       ES
      000000B8H.5 SFRSYM    DATA     BIT       PADC
      000000B8H   SFRSYM    DATA     BYTE      IP
LX51 LINKER/LOCATER V4.66.1.0                                                         09/21/2015  00:52:51  PAGE 31


      00000098H   SFRSYM    DATA     BIT       RI
      000000D0H.7 SFRSYM    DATA     BIT       CY
      00000098H.1 SFRSYM    DATA     BIT       TI
      00000097H   SFRSYM    DATA     BYTE      CLK_DIV
      000000C3H   SFRSYM    DATA     BYTE      IAP_ADDRH
      000000B8H.4 SFRSYM    DATA     BIT       PS
      00000081H   SFRSYM    DATA     BYTE      SP
      000000D9H   SFRSYM    DATA     BYTE      CMOD
      000000D8H   SFRSYM    DATA     BYTE      CCON
      000000C4H   SFRSYM    DATA     BYTE      IAP_ADDRL
      000000B8H.7 SFRSYM    DATA     BIT       PPCA
      000000D0H.2 SFRSYM    DATA     BIT       OV
      000000E6H   SFRSYM    DATA     BYTE      CMPCR1
      000000E7H   SFRSYM    DATA     BYTE      CMPCR2
      000000A8H.6 SFRSYM    DATA     BIT       ELVD
      00000080H   SFRSYM    DATA     BIT       P00
      000000BCH   SFRSYM    DATA     BYTE      ADC_CONTR
      00000099H   SFRSYM    DATA     BYTE      SBUF
      00000087H   SFRSYM    DATA     BYTE      PCON
      00000090H   SFRSYM    DATA     BIT       P10
      00000080H.1 SFRSYM    DATA     BIT       P01
      000000A0H   SFRSYM    DATA     BIT       P20
      00000090H.1 SFRSYM    DATA     BIT       P11
      00000080H.2 SFRSYM    DATA     BIT       P02
      000000B0H   SFRSYM    DATA     BIT       P30
      000000A0H.1 SFRSYM    DATA     BIT       P21
      00000090H.2 SFRSYM    DATA     BIT       P12
      00000080H.3 SFRSYM    DATA     BIT       P03
      00000098H   SFRSYM    DATA     BYTE      SCON
      000000C0H   SFRSYM    DATA     BIT       P40
      000000B0H.1 SFRSYM    DATA     BIT       P31
      000000A0H.2 SFRSYM    DATA     BIT       P22
      00000090H.3 SFRSYM    DATA     BIT       P13
      00000080H.4 SFRSYM    DATA     BIT       P04
      00000089H   SFRSYM    DATA     BYTE      TMOD
      00000088H   SFRSYM    DATA     BYTE      TCON
      000000C8H   SFRSYM    DATA     BIT       P50
      000000C0H.1 SFRSYM    DATA     BIT       P41
      000000B0H.2 SFRSYM    DATA     BIT       P32
      000000A0H.3 SFRSYM    DATA     BIT       P23
      00000090H.4 SFRSYM    DATA     BIT       P14
      00000080H.5 SFRSYM    DATA     BIT       P05
      000000E8H   SFRSYM    DATA     BIT       P60
      000000C8H.1 SFRSYM    DATA     BIT       P51
      000000C0H.2 SFRSYM    DATA     BIT       P42
      000000B0H.3 SFRSYM    DATA     BIT       P33
      000000A0H.4 SFRSYM    DATA     BIT       P24
      00000090H.5 SFRSYM    DATA     BIT       P15
      00000080H.6 SFRSYM    DATA     BIT       P06
      000000B8H.6 SFRSYM    DATA     BIT       PLVD
      000000F8H   SFRSYM    DATA     BIT       P70
      000000E8H.1 SFRSYM    DATA     BIT       P61
      000000C8H.2 SFRSYM    DATA     BIT       P52
      000000C0H.3 SFRSYM    DATA     BIT       P43
      000000B0H.4 SFRSYM    DATA     BIT       P34
      000000A0H.5 SFRSYM    DATA     BIT       P25
      00000090H.6 SFRSYM    DATA     BIT       P16
      00000080H.7 SFRSYM    DATA     BIT       P07
      000000F8H.1 SFRSYM    DATA     BIT       P71
      000000E8H.2 SFRSYM    DATA     BIT       P62
      000000C8H.3 SFRSYM    DATA     BIT       P53
      000000C0H.4 SFRSYM    DATA     BIT       P44
      000000B0H.5 SFRSYM    DATA     BIT       P35
      000000A0H.6 SFRSYM    DATA     BIT       P26
      00000090H.7 SFRSYM    DATA     BIT       P17
LX51 LINKER/LOCATER V4.66.1.0                                                         09/21/2015  00:52:51  PAGE 32


      000000F8H.2 SFRSYM    DATA     BIT       P72
      000000E8H.3 SFRSYM    DATA     BIT       P63
      000000C8H.4 SFRSYM    DATA     BIT       P54
      000000C0H.5 SFRSYM    DATA     BIT       P45
      000000B0H.6 SFRSYM    DATA     BIT       P36
      000000A0H.7 SFRSYM    DATA     BIT       P27
      000000F8H.3 SFRSYM    DATA     BIT       P73
      000000E8H.4 SFRSYM    DATA     BIT       P64
      000000C8H.5 SFRSYM    DATA     BIT       P55
      000000C0H.6 SFRSYM    DATA     BIT       P46
      000000B0H.7 SFRSYM    DATA     BIT       P37
      000000F8H.4 SFRSYM    DATA     BIT       P74
      000000E8H.5 SFRSYM    DATA     BIT       P65
      000000C8H.6 SFRSYM    DATA     BIT       P56
      000000C0H.7 SFRSYM    DATA     BIT       P47
      000000F8H.5 SFRSYM    DATA     BIT       P75
      000000E8H.6 SFRSYM    DATA     BIT       P66
      000000C8H.7 SFRSYM    DATA     BIT       P57
      000000F8H.6 SFRSYM    DATA     BIT       P76
      000000E8H.7 SFRSYM    DATA     BIT       P67
      00000088H.1 SFRSYM    DATA     BIT       IE0
      000000A1H   SFRSYM    DATA     BYTE      BUS_SPEED
      000000F8H.7 SFRSYM    DATA     BIT       P77
      00000088H.3 SFRSYM    DATA     BIT       IE1
      000000AFH   SFRSYM    DATA     BYTE      IE2
      0000008EH   SFRSYM    DATA     BYTE      AUXR
      000000F0H   SFRSYM    DATA     BYTE      B
      000000C7H   SFRSYM    DATA     BYTE      IAP_CONTR
      000000F1H   SFRSYM    DATA     BYTE      PWMCFG
      000000E0H   SFRSYM    DATA     BYTE      ACC
      000000A8H.1 SFRSYM    DATA     BIT       ET0
      00000088H.5 SFRSYM    DATA     BIT       TF0
      000000A8H.3 SFRSYM    DATA     BIT       ET1
      00000088H.7 SFRSYM    DATA     BIT       TF1
      000000B5H   SFRSYM    DATA     BYTE      IP2
      00000098H.2 SFRSYM    DATA     BIT       RB8
      0000008CH   SFRSYM    DATA     BYTE      TH0
      0000008DH   SFRSYM    DATA     BYTE      TH1
      00000088H   SFRSYM    DATA     BIT       IT0
      000000A8H   SFRSYM    DATA     BIT       EX0
      00000098H.3 SFRSYM    DATA     BIT       TB8
      000000D6H   SFRSYM    DATA     BYTE      T2H
      00000088H.2 SFRSYM    DATA     BIT       IT1
      000000A8H.2 SFRSYM    DATA     BIT       EX1
      000000D4H   SFRSYM    DATA     BYTE      T3H
      000000D0H   SFRSYM    DATA     BIT       P
      00000098H.7 SFRSYM    DATA     BIT       SM0
      000000D2H   SFRSYM    DATA     BYTE      T4H
      0000008AH   SFRSYM    DATA     BYTE      TL0
      00000098H.6 SFRSYM    DATA     BIT       SM1
      0000008BH   SFRSYM    DATA     BYTE      TL1
      00000098H.5 SFRSYM    DATA     BIT       SM2
      000000D7H   SFRSYM    DATA     BYTE      T2L
      000000D5H   SFRSYM    DATA     BYTE      T3L
      000000D3H   SFRSYM    DATA     BYTE      T4L
      000000B8H.1 SFRSYM    DATA     BIT       PT0
      000000B8H.3 SFRSYM    DATA     BIT       PT1
      000000D0H.3 SFRSYM    DATA     BIT       RS0
      000000C2H   SFRSYM    DATA     BYTE      IAP_DATA
      00000088H.4 SFRSYM    DATA     BIT       TR0
      000000D0H.4 SFRSYM    DATA     BIT       RS1
      00000088H.6 SFRSYM    DATA     BIT       TR1
      000000C1H   SFRSYM    DATA     BYTE      WDT_CONTR
      000000B8H   SFRSYM    DATA     BIT       PX0
      000000B8H.2 SFRSYM    DATA     BIT       PX1
LX51 LINKER/LOCATER V4.66.1.0                                                         09/21/2015  00:52:51  PAGE 33


      000000F2H   SFRSYM    DATA     BYTE      PCA_PWM0
      000000F3H   SFRSYM    DATA     BYTE      PCA_PWM1
      000000F4H   SFRSYM    DATA     BYTE      PCA_PWM2
      0000009DH   SFRSYM    DATA     BYTE      P1ASF
      00000083H   SFRSYM    DATA     BYTE      DPH
      000000D1H   SFRSYM    DATA     BYTE      T3T4M
      000000D1H   SFRSYM    DATA     BYTE      T4T3M
      000000BEH   SFRSYM    DATA     BYTE      ADC_RESL
      00000082H   SFRSYM    DATA     BYTE      DPL
      000000CDH   SFRSYM    DATA     BYTE      SPSTAT
      0000009BH   SFRSYM    DATA     BYTE      S2BUF
      00000097H   SFRSYM    DATA     BYTE      PCON2
      000000ADH   SFRSYM    DATA     BYTE      S3BUF
      00000085H   SFRSYM    DATA     BYTE      S4BUF
      00000098H.4 SFRSYM    DATA     BIT       REN
      0000009AH   SFRSYM    DATA     BYTE      S2CON
      000000ACH   SFRSYM    DATA     BYTE      S3CON
      00000084H   SFRSYM    DATA     BYTE      S4CON
      000000B9H   SFRSYM    DATA     BYTE      SADEN
      000000A9H   SFRSYM    DATA     BYTE      SADDR
      000000C6H   SFRSYM    DATA     BYTE      IAP_TRIG
      000000A2H   SFRSYM    DATA     BYTE      AUXR1
      000000D0H.5 SFRSYM    DATA     BIT       F0
      0000008FH   SFRSYM    DATA     BYTE      INT_CLKO
      000000D0H   SFRSYM    DATA     BYTE      PSW
      000000D8H   SFRSYM    DATA     BIT       CCF0
      000000D8H.1 SFRSYM    DATA     BIT       CCF1
      000000CFH   SFRSYM    DATA     BYTE      SPDAT
      00000094H   SFRSYM    DATA     BYTE      P0M0

      0100237EH   BLOCK     CODE     ---       LVL=0
      00000007H   SYMBOL    DATA     BYTE      pin
      00000005H   SYMBOL    DATA     BYTE      mode
      0100237EH   BLOCK     CODE     NEAR LAB  LVL=1
      00000006H   SYMBOL    DATA     BYTE      Bitmask
      00000007H   SYMBOL    DATA     BYTE      Bit
      00000001H   SYMBOL    DATA     BYTE      Port
      00000004H   SYMBOL    DATA     BYTE      PxM1
      00000007H   SYMBOL    DATA     BYTE      PxM0
      ---         BLOCKEND  ---      ---       LVL=1
      0100237EH   LINE      CODE     ---       #62
      0100237EH   LINE      CODE     ---       #63
      0100237EH   LINE      CODE     ---       #65
      01002384H   LINE      CODE     ---       #66
      0100238AH   LINE      CODE     ---       #67
      01002390H   LINE      CODE     ---       #68
      010023ABH   LINE      CODE     ---       #69
      010023C6H   LINE      CODE     ---       #70
      010023EEH   LINE      CODE     ---       #71
      010023EEH   LINE      CODE     ---       #72
      010023EEH   LINE      CODE     ---       #73
      010023F6H   LINE      CODE     ---       #74
      010023FCH   LINE      CODE     ---       #75
      010023FDH   LINE      CODE     ---       #76
      010023FDH   LINE      CODE     ---       #77
      01002405H   LINE      CODE     ---       #78
      0100240BH   LINE      CODE     ---       #79
      0100240CH   LINE      CODE     ---       #80
      0100240CH   LINE      CODE     ---       #81
      01002414H   LINE      CODE     ---       #82
      0100241AH   LINE      CODE     ---       #83
      0100241BH   LINE      CODE     ---       #84
      0100241BH   LINE      CODE     ---       #85
      01002423H   LINE      CODE     ---       #86
      01002429H   LINE      CODE     ---       #87
LX51 LINKER/LOCATER V4.66.1.0                                                         09/21/2015  00:52:51  PAGE 34


      0100242AH   LINE      CODE     ---       #88
      0100242AH   LINE      CODE     ---       #89
      01002432H   LINE      CODE     ---       #90
      01002438H   LINE      CODE     ---       #91
      01002439H   LINE      CODE     ---       #92
      01002439H   LINE      CODE     ---       #93
      01002441H   LINE      CODE     ---       #94
      01002447H   LINE      CODE     ---       #95
      01002448H   LINE      CODE     ---       #96
      01002448H   LINE      CODE     ---       #97
      01002450H   LINE      CODE     ---       #98
      01002456H   LINE      CODE     ---       #99
      01002457H   LINE      CODE     ---       #100
      01002457H   LINE      CODE     ---       #101
      0100245FH   LINE      CODE     ---       #102
      01002465H   LINE      CODE     ---       #103
      01002465H   LINE      CODE     ---       #104
      01002465H   LINE      CODE     ---       #105
      01002465H   LINE      CODE     ---       #106
      01002465H   LINE      CODE     ---       #107
      ---         BLOCKEND  ---      ---       LVL=0

      01002699H   BLOCK     CODE     ---       LVL=0
      00000007H   SYMBOL    DATA     BYTE      pin
      00000005H   SYMBOL    DATA     BYTE      value
      01002699H   BLOCK     CODE     NEAR LAB  LVL=1
      00000007H   SYMBOL    DATA     BYTE      Bitmask
      00000006H   SYMBOL    DATA     BYTE      Port
      ---         BLOCKEND  ---      ---       LVL=1
      01002699H   LINE      CODE     ---       #110
      01002699H   LINE      CODE     ---       #111
      01002699H   LINE      CODE     ---       #114
      0100269FH   LINE      CODE     ---       #115
      010026A5H   LINE      CODE     ---       #116
      010026CDH   LINE      CODE     ---       #117
      010026CDH   LINE      CODE     ---       #118
      010026CDH   LINE      CODE     ---       #119
      010026D4H   LINE      CODE     ---       #120
      010026D8H   LINE      CODE     ---       #121
      010026D9H   LINE      CODE     ---       #122
      010026D9H   LINE      CODE     ---       #123
      010026E0H   LINE      CODE     ---       #124
      010026E4H   LINE      CODE     ---       #125
      010026E5H   LINE      CODE     ---       #126
      010026E5H   LINE      CODE     ---       #127
      010026ECH   LINE      CODE     ---       #128
      010026F0H   LINE      CODE     ---       #129
      010026F1H   LINE      CODE     ---       #130
      010026F1H   LINE      CODE     ---       #131
      010026F8H   LINE      CODE     ---       #132
      010026FCH   LINE      CODE     ---       #133
      010026FDH   LINE      CODE     ---       #134
      010026FDH   LINE      CODE     ---       #135
      01002704H   LINE      CODE     ---       #136
      01002708H   LINE      CODE     ---       #137
      01002709H   LINE      CODE     ---       #138
      01002709H   LINE      CODE     ---       #139
      01002710H   LINE      CODE     ---       #140
      01002714H   LINE      CODE     ---       #141
      01002715H   LINE      CODE     ---       #142
      01002715H   LINE      CODE     ---       #143
      0100271CH   LINE      CODE     ---       #144
      01002720H   LINE      CODE     ---       #145
      01002721H   LINE      CODE     ---       #146
      01002721H   LINE      CODE     ---       #147
LX51 LINKER/LOCATER V4.66.1.0                                                         09/21/2015  00:52:51  PAGE 35


      01002728H   LINE      CODE     ---       #148
      0100272CH   LINE      CODE     ---       #149
      0100272CH   LINE      CODE     ---       #150
      0100272CH   LINE      CODE     ---       #151
      0100272CH   LINE      CODE     ---       #152
      0100272CH   LINE      CODE     ---       #153
      ---         BLOCKEND  ---      ---       LVL=0
      00000007H   SYMBOL    DATA     BYTE      pin
      00000007H   SYMBOL    DATA     BYTE      Bitmask
      00000006H   SYMBOL    DATA     BYTE      Port

      0100272DH   BLOCK     CODE     ---       LVL=0
      ---         BLOCKEND  ---      ---       LVL=0

      0100273CH   BLOCK     CODE     ---       LVL=0
      00000007H   SYMBOL    DATA     BYTE      pin
      00000007H   SYMBOL    DATA     BYTE      Bitmask
      00000006H   SYMBOL    DATA     BYTE      Port
      0100273CH   BLOCK     CODE     NEAR LAB  LVL=1
      00000007H   SYMBOL    DATA     BYTE      Bitmask
      00000006H   SYMBOL    DATA     BYTE      Port
      ---         BLOCKEND  ---      ---       LVL=1
      0100273CH   LINE      CODE     ---       #192
      0100273CH   LINE      CODE     ---       #193
      0100273CH   LINE      CODE     ---       #196
      01002742H   LINE      CODE     ---       #197
      01002748H   LINE      CODE     ---       #198
      0100276DH   LINE      CODE     ---       #199
      0100276DH   LINE      CODE     ---       #200
      0100276DH   LINE      CODE     ---       #202
      01002776H   LINE      CODE     ---       #203
      01002777H   LINE      CODE     ---       #204
      01002777H   LINE      CODE     ---       #205
      01002777H   LINE      CODE     ---       #206
      01002780H   LINE      CODE     ---       #207
      01002781H   LINE      CODE     ---       #208
      01002781H   LINE      CODE     ---       #209
      01002781H   LINE      CODE     ---       #210
      0100278AH   LINE      CODE     ---       #211
      0100278BH   LINE      CODE     ---       #212
      0100278BH   LINE      CODE     ---       #213
      0100278BH   LINE      CODE     ---       #214
      01002794H   LINE      CODE     ---       #215
      01002795H   LINE      CODE     ---       #216
      01002795H   LINE      CODE     ---       #217
      01002795H   LINE      CODE     ---       #218
      0100279EH   LINE      CODE     ---       #219
      0100279FH   LINE      CODE     ---       #220
      0100279FH   LINE      CODE     ---       #221
      0100279FH   LINE      CODE     ---       #222
      010027A8H   LINE      CODE     ---       #223
      010027A9H   LINE      CODE     ---       #224
      010027A9H   LINE      CODE     ---       #225
      010027A9H   LINE      CODE     ---       #226
      010027B2H   LINE      CODE     ---       #227
      010027B3H   LINE      CODE     ---       #228
      010027B3H   LINE      CODE     ---       #229
      010027B3H   LINE      CODE     ---       #230
      010027BCH   LINE      CODE     ---       #231
      010027BDH   LINE      CODE     ---       #232
      010027BDH   LINE      CODE     ---       #233
      010027BDH   LINE      CODE     ---       #234
      010027BFH   LINE      CODE     ---       #235
      010027BFH   LINE      CODE     ---       #236
      010027BFH   LINE      CODE     ---       #238
LX51 LINKER/LOCATER V4.66.1.0                                                         09/21/2015  00:52:51  PAGE 36


      ---         BLOCKEND  ---      ---       LVL=0
      00000001H   SYMBOL    DATA     BYTE      dataPin
      00000003H   SYMBOL    DATA     BYTE      bitOrder
      00000004H   SYMBOL    DATA     BYTE      i
      00000001H   SYMBOL    DATA     BYTE      dataPin
      00000002H   SYMBOL    DATA     BYTE      clockPin
      00000007H   SYMBOL    DATA     BYTE      bitOrder
      00000004H   SYMBOL    DATA     CHAR      i
      00000003H   SYMBOL    DATA     BYTE      value

      010013DFH   BLOCK     CODE     ---       LVL=0
      00000007H   SYMBOL    DATA     BYTE      pin
      0200012EH   SYMBOL    XDATA    WORD      frequency
      010013E7H   BLOCK     CODE     NEAR LAB  LVL=1
      02000130H   SYMBOL    XDATA    BYTE      TH_TEMP
      02000131H   SYMBOL    XDATA    BYTE      TL_TEMP
      02000132H   SYMBOL    XDATA    WORD      TIM_Value
      ---         BLOCKEND  ---      ---       LVL=1
      010013DFH   LINE      CODE     ---       #318
      010013E7H   LINE      CODE     ---       #319
      010013E7H   LINE      CODE     ---       #322
      01001406H   LINE      CODE     ---       #323
      01001406H   LINE      CODE     ---       #324
      01001406H   LINE      CODE     ---       #325
      01001409H   LINE      CODE     ---       #326
      0100140CH   LINE      CODE     ---       #327
      0100140FH   LINE      CODE     ---       #328
      01001412H   LINE      CODE     ---       #329
      01001453H   LINE      CODE     ---       #330
      01001461H   LINE      CODE     ---       #331
      01001466H   LINE      CODE     ---       #332
      01001468H   LINE      CODE     ---       #333
      0100146AH   LINE      CODE     ---       #334
      0100146CH   LINE      CODE     ---       #335
      0100146DH   LINE      CODE     ---       #336
      0100146DH   LINE      CODE     ---       #338
      01001470H   LINE      CODE     ---       #339
      01001473H   LINE      CODE     ---       #340
      01001476H   LINE      CODE     ---       #341
      01001479H   LINE      CODE     ---       #342
      010014BAH   LINE      CODE     ---       #343
      010014C8H   LINE      CODE     ---       #344
      010014CDH   LINE      CODE     ---       #345
      010014CFH   LINE      CODE     ---       #346
      010014D1H   LINE      CODE     ---       #347
      010014D3H   LINE      CODE     ---       #348
      010014D4H   LINE      CODE     ---       #349
      010014D4H   LINE      CODE     ---       #351
      010014D7H   LINE      CODE     ---       #352
      010014DAH   LINE      CODE     ---       #353
      010014DDH   LINE      CODE     ---       #354
      0100151EH   LINE      CODE     ---       #355
      0100152CH   LINE      CODE     ---       #356
      01001531H   LINE      CODE     ---       #357
      01001533H   LINE      CODE     ---       #358
      01001535H   LINE      CODE     ---       #359
      01001538H   LINE      CODE     ---       #360
      01001539H   LINE      CODE     ---       #361
      01001539H   LINE      CODE     ---       #363
      0100153CH   LINE      CODE     ---       #364
      0100153FH   LINE      CODE     ---       #365
      01001542H   LINE      CODE     ---       #366
      01001583H   LINE      CODE     ---       #367
      01001591H   LINE      CODE     ---       #368
      01001596H   LINE      CODE     ---       #369
LX51 LINKER/LOCATER V4.66.1.0                                                         09/21/2015  00:52:51  PAGE 37


      01001598H   LINE      CODE     ---       #370
      0100159AH   LINE      CODE     ---       #371
      0100159DH   LINE      CODE     ---       #372
      0100159EH   LINE      CODE     ---       #373
      0100159EH   LINE      CODE     ---       #375
      010015A1H   LINE      CODE     ---       #376
      010015A4H   LINE      CODE     ---       #377
      010015A7H   LINE      CODE     ---       #378
      010015E8H   LINE      CODE     ---       #379
      010015F6H   LINE      CODE     ---       #380
      010015FBH   LINE      CODE     ---       #381
      010015FDH   LINE      CODE     ---       #382
      010015FFH   LINE      CODE     ---       #383
      01001602H   LINE      CODE     ---       #384
      01001602H   LINE      CODE     ---       #385
      01001602H   LINE      CODE     ---       #386
      01001602H   LINE      CODE     ---       #387
      01001602H   LINE      CODE     ---       #388
      ---         BLOCKEND  ---      ---       LVL=0

      01002DECH   BLOCK     CODE     ---       LVL=0
      00000007H   SYMBOL    DATA     BYTE      pin
      01002DECH   LINE      CODE     ---       #398
      01002DECH   LINE      CODE     ---       #399
      01002DECH   LINE      CODE     ---       #401
      01002DFFH   LINE      CODE     ---       #402
      01002DFFH   LINE      CODE     ---       #403
      01002DFFH   LINE      CODE     ---       #404
      01002E02H   LINE      CODE     ---       #405
      01002E04H   LINE      CODE     ---       #406
      01002E06H   LINE      CODE     ---       #407
      01002E06H   LINE      CODE     ---       #408
      01002E09H   LINE      CODE     ---       #409
      01002E0BH   LINE      CODE     ---       #410
      01002E0DH   LINE      CODE     ---       #411
      01002E0DH   LINE      CODE     ---       #412
      01002E10H   LINE      CODE     ---       #413
      01002E13H   LINE      CODE     ---       #414
      01002E15H   LINE      CODE     ---       #415
      01002E15H   LINE      CODE     ---       #416
      01002E18H   LINE      CODE     ---       #417
      01002E1BH   LINE      CODE     ---       #418
      01002E1DH   LINE      CODE     ---       #419
      01002E1DH   LINE      CODE     ---       #420
      01002E20H   LINE      CODE     ---       #421
      01002E23H   LINE      CODE     ---       #422
      01002E23H   LINE      CODE     ---       #423
      01002E23H   LINE      CODE     ---       #424
      01002E23H   LINE      CODE     ---       #425
      01002E23H   LINE      CODE     ---       #426
      ---         BLOCKEND  ---      ---       LVL=0

      ---         MODULE    ---      ---       USART
      00000024H.7 PUBLIC    BIT      BIT       sendstop
      00000024H.6 PUBLIC    BIT      BIT       bufempty
      00000024H.5 PUBLIC    BIT      BIT       sendfull
      00000024H.4 PUBLIC    BIT      BIT       sendactive4
      00000024H.3 PUBLIC    BIT      BIT       sendactive3
      00000024H.2 PUBLIC    BIT      BIT       sendactive2
      020000D1H   PUBLIC    XDATA    BYTE      oend4
      020000D0H   PUBLIC    XDATA    BYTE      oend3
      020000CFH   PUBLIC    XDATA    BYTE      oend2
      020000CEH   PUBLIC    XDATA    CHAR      COMx
      020000CDH   PUBLIC    XDATA    BYTE      iend4
      020000CCH   PUBLIC    XDATA    BYTE      iend3
LX51 LINKER/LOCATER V4.66.1.0                                                         09/21/2015  00:52:51  PAGE 38


      020000CBH   PUBLIC    XDATA    BYTE      ostart4
      020000CAH   PUBLIC    XDATA    BYTE      iend2
      020000C9H   PUBLIC    XDATA    BYTE      ostart3
      020000C8H   PUBLIC    XDATA    BYTE      ostart2
      020000C7H   PUBLIC    XDATA    BYTE      istart4
      020000C6H   PUBLIC    XDATA    BYTE      istart3
      020000C5H   PUBLIC    XDATA    BYTE      istart2
      020000A5H   PUBLIC    XDATA    ---       outbuf4
      02000085H   PUBLIC    XDATA    ---       outbuf3
      02000065H   PUBLIC    XDATA    ---       outbuf2
      02000055H   PUBLIC    XDATA    ---       inbuf4
      02000045H   PUBLIC    XDATA    ---       inbuf3
      02000035H   PUBLIC    XDATA    ---       inbuf2
      00000024H.1 PUBLIC    BIT      BIT       sendactive
      00000024H.0 PUBLIC    BIT      BIT       sendstop4
      00000023H.7 PUBLIC    BIT      BIT       sendstop3
      02000034H   PUBLIC    XDATA    BYTE      oend
      00000023H.6 PUBLIC    BIT      BIT       sendstop2
      00000023H.5 PUBLIC    BIT      BIT       bufempty4
      00000023H.4 PUBLIC    BIT      BIT       bufempty3
      00000023H.3 PUBLIC    BIT      BIT       bufempty2
      02000033H   PUBLIC    XDATA    BYTE      iend
      02000032H   PUBLIC    XDATA    BYTE      ostart
      02000031H   PUBLIC    XDATA    BYTE      istart
      02000011H   PUBLIC    XDATA    ---       outbuf
      02000001H   PUBLIC    XDATA    ---       inbuf
      00000023H.2 PUBLIC    BIT      BIT       sendfull4
      00000023H.1 PUBLIC    BIT      BIT       sendfull3
      00000023H.0 PUBLIC    BIT      BIT       sendfull2
      0200012EH   PUBLIC    XDATA    BYTE      ?_Serialbegin?BYTE
      0100117AH   PUBLIC    CODE     ---       _Serialbegin
      010029CAH   PUBLIC    CODE     ---       serial4
      01002951H   PUBLIC    CODE     ---       serial3
      010028D8H   PUBLIC    CODE     ---       serial2
      01002B27H   PUBLIC    CODE     ---       serial
      0100000EH   PUBLIC    CODE     ---       _putchar
      01001F42H   PUBLIC    CODE     ---       _putbuf
      000000D8H.2 SFRSYM    DATA     BIT       CCF2
      00000092H   SFRSYM    DATA     BYTE      P1M0
      00000093H   SFRSYM    DATA     BYTE      P0M1
      00000096H   SFRSYM    DATA     BYTE      P2M0
      00000091H   SFRSYM    DATA     BYTE      P1M1
      00000080H   SFRSYM    DATA     BYTE      P0
      000000B2H   SFRSYM    DATA     BYTE      P3M0
      00000095H   SFRSYM    DATA     BYTE      P2M1
      00000090H   SFRSYM    DATA     BYTE      P1
      000000B4H   SFRSYM    DATA     BYTE      P4M0
      000000B1H   SFRSYM    DATA     BYTE      P3M1
      000000A0H   SFRSYM    DATA     BYTE      P2
      000000ABH   SFRSYM    DATA     BYTE      WKTCH
      000000CAH   SFRSYM    DATA     BYTE      P5M0
      000000B3H   SFRSYM    DATA     BYTE      P4M1
      000000B0H   SFRSYM    DATA     BYTE      P3
      000000CCH   SFRSYM    DATA     BYTE      P6M0
      000000C9H   SFRSYM    DATA     BYTE      P5M1
      000000C0H   SFRSYM    DATA     BYTE      P4
      000000D0H.6 SFRSYM    DATA     BIT       AC
      000000F6H   SFRSYM    DATA     BYTE      PWMIF
      000000E2H   SFRSYM    DATA     BYTE      P7M0
      000000CBH   SFRSYM    DATA     BYTE      P6M1
      000000C8H   SFRSYM    DATA     BYTE      P5
      000000A8H.7 SFRSYM    DATA     BIT       EA
      000000E1H   SFRSYM    DATA     BYTE      P7M1
      000000E8H   SFRSYM    DATA     BYTE      P6
      000000AAH   SFRSYM    DATA     BYTE      WKTCL
LX51 LINKER/LOCATER V4.66.1.0                                                         09/21/2015  00:52:51  PAGE 39


      000000F8H   SFRSYM    DATA     BYTE      P7
      000000CEH   SFRSYM    DATA     BYTE      SPCTL
      000000D8H.7 SFRSYM    DATA     BIT       CF
      000000F5H   SFRSYM    DATA     BYTE      PWMCR
      000000F9H   SFRSYM    DATA     BYTE      CH
      000000A2H   SFRSYM    DATA     BYTE      P_SW1
      000000BAH   SFRSYM    DATA     BYTE      P_SW2
      000000A8H.5 SFRSYM    DATA     BIT       EADC
      000000A8H   SFRSYM    DATA     BYTE      IE
      000000E9H   SFRSYM    DATA     BYTE      CL
      000000C5H   SFRSYM    DATA     BYTE      IAP_CMD
      000000FAH   SFRSYM    DATA     BYTE      CCAP0H
      000000FBH   SFRSYM    DATA     BYTE      CCAP1H
      000000FCH   SFRSYM    DATA     BYTE      CCAP2H
      000000BDH   SFRSYM    DATA     BYTE      ADC_RES
      000000EAH   SFRSYM    DATA     BYTE      CCAP0L
      000000D8H.6 SFRSYM    DATA     BIT       CR
      000000F7H   SFRSYM    DATA     BYTE      PWMFDCR
      000000EBH   SFRSYM    DATA     BYTE      CCAP1L
      000000DAH   SFRSYM    DATA     BYTE      CCAPM0
      000000ECH   SFRSYM    DATA     BYTE      CCAP2L
      000000DBH   SFRSYM    DATA     BYTE      CCAPM1
      000000DCH   SFRSYM    DATA     BYTE      CCAPM2
      000000A8H.4 SFRSYM    DATA     BIT       ES
      000000B8H.5 SFRSYM    DATA     BIT       PADC
      000000B8H   SFRSYM    DATA     BYTE      IP
      00000098H   SFRSYM    DATA     BIT       RI
      000000D0H.7 SFRSYM    DATA     BIT       CY
      00000098H.1 SFRSYM    DATA     BIT       TI
      00000097H   SFRSYM    DATA     BYTE      CLK_DIV
      000000C3H   SFRSYM    DATA     BYTE      IAP_ADDRH
      000000B8H.4 SFRSYM    DATA     BIT       PS
      00000081H   SFRSYM    DATA     BYTE      SP
      000000D9H   SFRSYM    DATA     BYTE      CMOD
      000000D8H   SFRSYM    DATA     BYTE      CCON
      000000C4H   SFRSYM    DATA     BYTE      IAP_ADDRL
      000000B8H.7 SFRSYM    DATA     BIT       PPCA
      000000D0H.2 SFRSYM    DATA     BIT       OV
      000000E6H   SFRSYM    DATA     BYTE      CMPCR1
      000000E7H   SFRSYM    DATA     BYTE      CMPCR2
      000000A8H.6 SFRSYM    DATA     BIT       ELVD
      00000080H   SFRSYM    DATA     BIT       P00
      000000BCH   SFRSYM    DATA     BYTE      ADC_CONTR
      00000099H   SFRSYM    DATA     BYTE      SBUF
      00000087H   SFRSYM    DATA     BYTE      PCON
      00000090H   SFRSYM    DATA     BIT       P10
      00000080H.1 SFRSYM    DATA     BIT       P01
      000000A0H   SFRSYM    DATA     BIT       P20
      00000090H.1 SFRSYM    DATA     BIT       P11
      00000080H.2 SFRSYM    DATA     BIT       P02
      000000B0H   SFRSYM    DATA     BIT       P30
      000000A0H.1 SFRSYM    DATA     BIT       P21
      00000090H.2 SFRSYM    DATA     BIT       P12
      00000080H.3 SFRSYM    DATA     BIT       P03
      00000098H   SFRSYM    DATA     BYTE      SCON
      000000C0H   SFRSYM    DATA     BIT       P40
      000000B0H.1 SFRSYM    DATA     BIT       P31
      000000A0H.2 SFRSYM    DATA     BIT       P22
      00000090H.3 SFRSYM    DATA     BIT       P13
      00000080H.4 SFRSYM    DATA     BIT       P04
      00000089H   SFRSYM    DATA     BYTE      TMOD
      00000088H   SFRSYM    DATA     BYTE      TCON
      000000C8H   SFRSYM    DATA     BIT       P50
      000000C0H.1 SFRSYM    DATA     BIT       P41
      000000B0H.2 SFRSYM    DATA     BIT       P32
LX51 LINKER/LOCATER V4.66.1.0                                                         09/21/2015  00:52:51  PAGE 40


      000000A0H.3 SFRSYM    DATA     BIT       P23
      00000090H.4 SFRSYM    DATA     BIT       P14
      00000080H.5 SFRSYM    DATA     BIT       P05
      000000E8H   SFRSYM    DATA     BIT       P60
      000000C8H.1 SFRSYM    DATA     BIT       P51
      000000C0H.2 SFRSYM    DATA     BIT       P42
      000000B0H.3 SFRSYM    DATA     BIT       P33
      000000A0H.4 SFRSYM    DATA     BIT       P24
      00000090H.5 SFRSYM    DATA     BIT       P15
      00000080H.6 SFRSYM    DATA     BIT       P06
      000000B8H.6 SFRSYM    DATA     BIT       PLVD
      000000F8H   SFRSYM    DATA     BIT       P70
      000000E8H.1 SFRSYM    DATA     BIT       P61
      000000C8H.2 SFRSYM    DATA     BIT       P52
      000000C0H.3 SFRSYM    DATA     BIT       P43
      000000B0H.4 SFRSYM    DATA     BIT       P34
      000000A0H.5 SFRSYM    DATA     BIT       P25
      00000090H.6 SFRSYM    DATA     BIT       P16
      00000080H.7 SFRSYM    DATA     BIT       P07
      000000F8H.1 SFRSYM    DATA     BIT       P71
      000000E8H.2 SFRSYM    DATA     BIT       P62
      000000C8H.3 SFRSYM    DATA     BIT       P53
      000000C0H.4 SFRSYM    DATA     BIT       P44
      000000B0H.5 SFRSYM    DATA     BIT       P35
      000000A0H.6 SFRSYM    DATA     BIT       P26
      00000090H.7 SFRSYM    DATA     BIT       P17
      000000F8H.2 SFRSYM    DATA     BIT       P72
      000000E8H.3 SFRSYM    DATA     BIT       P63
      000000C8H.4 SFRSYM    DATA     BIT       P54
      000000C0H.5 SFRSYM    DATA     BIT       P45
      000000B0H.6 SFRSYM    DATA     BIT       P36
      000000A0H.7 SFRSYM    DATA     BIT       P27
      000000F8H.3 SFRSYM    DATA     BIT       P73
      000000E8H.4 SFRSYM    DATA     BIT       P64
      000000C8H.5 SFRSYM    DATA     BIT       P55
      000000C0H.6 SFRSYM    DATA     BIT       P46
      000000B0H.7 SFRSYM    DATA     BIT       P37
      000000F8H.4 SFRSYM    DATA     BIT       P74
      000000E8H.5 SFRSYM    DATA     BIT       P65
      000000C8H.6 SFRSYM    DATA     BIT       P56
      000000C0H.7 SFRSYM    DATA     BIT       P47
      000000F8H.5 SFRSYM    DATA     BIT       P75
      000000E8H.6 SFRSYM    DATA     BIT       P66
      000000C8H.7 SFRSYM    DATA     BIT       P57
      000000F8H.6 SFRSYM    DATA     BIT       P76
      000000E8H.7 SFRSYM    DATA     BIT       P67
      00000088H.1 SFRSYM    DATA     BIT       IE0
      000000A1H   SFRSYM    DATA     BYTE      BUS_SPEED
      000000F8H.7 SFRSYM    DATA     BIT       P77
      00000088H.3 SFRSYM    DATA     BIT       IE1
      000000AFH   SFRSYM    DATA     BYTE      IE2
      0000008EH   SFRSYM    DATA     BYTE      AUXR
      000000F0H   SFRSYM    DATA     BYTE      B
      000000C7H   SFRSYM    DATA     BYTE      IAP_CONTR
      000000F1H   SFRSYM    DATA     BYTE      PWMCFG
      000000E0H   SFRSYM    DATA     BYTE      ACC
      000000A8H.1 SFRSYM    DATA     BIT       ET0
      00000088H.5 SFRSYM    DATA     BIT       TF0
      000000A8H.3 SFRSYM    DATA     BIT       ET1
      00000088H.7 SFRSYM    DATA     BIT       TF1
      000000B5H   SFRSYM    DATA     BYTE      IP2
      00000098H.2 SFRSYM    DATA     BIT       RB8
      0000008CH   SFRSYM    DATA     BYTE      TH0
      0000008DH   SFRSYM    DATA     BYTE      TH1
      00000088H   SFRSYM    DATA     BIT       IT0
LX51 LINKER/LOCATER V4.66.1.0                                                         09/21/2015  00:52:51  PAGE 41


      000000A8H   SFRSYM    DATA     BIT       EX0
      00000098H.3 SFRSYM    DATA     BIT       TB8
      000000D6H   SFRSYM    DATA     BYTE      T2H
      00000088H.2 SFRSYM    DATA     BIT       IT1
      000000A8H.2 SFRSYM    DATA     BIT       EX1
      000000D4H   SFRSYM    DATA     BYTE      T3H
      000000D0H   SFRSYM    DATA     BIT       P
      00000098H.7 SFRSYM    DATA     BIT       SM0
      000000D2H   SFRSYM    DATA     BYTE      T4H
      0000008AH   SFRSYM    DATA     BYTE      TL0
      00000098H.6 SFRSYM    DATA     BIT       SM1
      0000008BH   SFRSYM    DATA     BYTE      TL1
      00000098H.5 SFRSYM    DATA     BIT       SM2
      000000D7H   SFRSYM    DATA     BYTE      T2L
      000000D5H   SFRSYM    DATA     BYTE      T3L
      000000D3H   SFRSYM    DATA     BYTE      T4L
      000000B8H.1 SFRSYM    DATA     BIT       PT0
      000000B8H.3 SFRSYM    DATA     BIT       PT1
      000000D0H.3 SFRSYM    DATA     BIT       RS0
      000000C2H   SFRSYM    DATA     BYTE      IAP_DATA
      00000088H.4 SFRSYM    DATA     BIT       TR0
      000000D0H.4 SFRSYM    DATA     BIT       RS1
      00000088H.6 SFRSYM    DATA     BIT       TR1
      000000C1H   SFRSYM    DATA     BYTE      WDT_CONTR
      000000B8H   SFRSYM    DATA     BIT       PX0
      000000B8H.2 SFRSYM    DATA     BIT       PX1
      000000F2H   SFRSYM    DATA     BYTE      PCA_PWM0
      000000F3H   SFRSYM    DATA     BYTE      PCA_PWM1
      000000F4H   SFRSYM    DATA     BYTE      PCA_PWM2
      0000009DH   SFRSYM    DATA     BYTE      P1ASF
      00000083H   SFRSYM    DATA     BYTE      DPH
      000000D1H   SFRSYM    DATA     BYTE      T3T4M
      000000D1H   SFRSYM    DATA     BYTE      T4T3M
      000000BEH   SFRSYM    DATA     BYTE      ADC_RESL
      00000082H   SFRSYM    DATA     BYTE      DPL
      000000CDH   SFRSYM    DATA     BYTE      SPSTAT
      0000009BH   SFRSYM    DATA     BYTE      S2BUF
      00000097H   SFRSYM    DATA     BYTE      PCON2
      000000ADH   SFRSYM    DATA     BYTE      S3BUF
      00000085H   SFRSYM    DATA     BYTE      S4BUF
      00000098H.4 SFRSYM    DATA     BIT       REN
      0000009AH   SFRSYM    DATA     BYTE      S2CON
      000000ACH   SFRSYM    DATA     BYTE      S3CON
      00000084H   SFRSYM    DATA     BYTE      S4CON
      000000B9H   SFRSYM    DATA     BYTE      SADEN
      000000A9H   SFRSYM    DATA     BYTE      SADDR
      000000C6H   SFRSYM    DATA     BYTE      IAP_TRIG
      000000A2H   SFRSYM    DATA     BYTE      AUXR1
      000000D0H.5 SFRSYM    DATA     BIT       F0
      0000008FH   SFRSYM    DATA     BYTE      INT_CLKO
      000000D0H   SFRSYM    DATA     BYTE      PSW
      000000D8H   SFRSYM    DATA     BIT       CCF0
      000000D8H.1 SFRSYM    DATA     BIT       CCF1
      000000CFH   SFRSYM    DATA     BYTE      SPDAT
      00000094H   SFRSYM    DATA     BYTE      P0M0
      00000007H   SYMBOL    DATA     CHAR      comx

      01001F42H   BLOCK     CODE     ---       LVL=0
      00000007H   SYMBOL    DATA     CHAR      c
      01001F42H   LINE      CODE     ---       #96
      01001F42H   LINE      CODE     ---       #97
      01001F42H   LINE      CODE     ---       #98
      01001F58H   LINE      CODE     ---       #99
      01001F58H   LINE      CODE     ---       #100
      01001F58H   LINE      CODE     ---       #101
LX51 LINKER/LOCATER V4.66.1.0                                                         09/21/2015  00:52:51  PAGE 42


      01001F58H   LINE      CODE     ---       #103
      01001F5BH   LINE      CODE     ---       #105
      01001F61H   LINE      CODE     ---       #106
      01001F61H   LINE      CODE     ---       #107
      01001F67H   LINE      CODE     ---       #108
      01001F67H   LINE      CODE     ---       #109
      01001F69H   LINE      CODE     ---       #110
      01001F6BH   LINE      CODE     ---       #111
      01001F6CH   LINE      CODE     ---       #113
      01001F6CH   LINE      CODE     ---       #114
      01001F7BH   LINE      CODE     ---       #115
      01001F88H   LINE      CODE     ---       #116
      01001F8AH   LINE      CODE     ---       #117
      01001F9BH   LINE      CODE     ---       #119
      01001F9BH   LINE      CODE     ---       #120
      01001F9BH   LINE      CODE     ---       #121
      01001F9CH   LINE      CODE     ---       #122
      01001F9CH   LINE      CODE     ---       #123
      01001F9FH   LINE      CODE     ---       #124
      01001FA5H   LINE      CODE     ---       #125
      01001FA5H   LINE      CODE     ---       #126
      01001FABH   LINE      CODE     ---       #127
      01001FABH   LINE      CODE     ---       #128
      01001FADH   LINE      CODE     ---       #129
      01001FAFH   LINE      CODE     ---       #130
      01001FB0H   LINE      CODE     ---       #132
      01001FB0H   LINE      CODE     ---       #133
      01001FBFH   LINE      CODE     ---       #134
      01001FCCH   LINE      CODE     ---       #135
      01001FCEH   LINE      CODE     ---       #136
      01001FDFH   LINE      CODE     ---       #138
      01001FDFH   LINE      CODE     ---       #139
      01001FDFH   LINE      CODE     ---       #140
      01001FE0H   LINE      CODE     ---       #141
      01001FE0H   LINE      CODE     ---       #142
      01001FE3H   LINE      CODE     ---       #143
      01001FE6H   LINE      CODE     ---       #144
      01001FE6H   LINE      CODE     ---       #145
      01001FECH   LINE      CODE     ---       #146
      01001FECH   LINE      CODE     ---       #147
      01001FEEH   LINE      CODE     ---       #148
      01001FF0H   LINE      CODE     ---       #149
      01001FF1H   LINE      CODE     ---       #151
      01001FF1H   LINE      CODE     ---       #152
      01002000H   LINE      CODE     ---       #153
      0100200DH   LINE      CODE     ---       #154
      0100200FH   LINE      CODE     ---       #155
      0100201DH   LINE      CODE     ---       #157
      0100201DH   LINE      CODE     ---       #158
      0100201DH   LINE      CODE     ---       #159
      0100201EH   LINE      CODE     ---       #160
      0100201EH   LINE      CODE     ---       #161
      01002021H   LINE      CODE     ---       #162
      01002024H   LINE      CODE     ---       #163
      01002024H   LINE      CODE     ---       #164
      0100202AH   LINE      CODE     ---       #165
      0100202AH   LINE      CODE     ---       #166
      0100202CH   LINE      CODE     ---       #167
      0100202EH   LINE      CODE     ---       #168
      0100202FH   LINE      CODE     ---       #170
      0100202FH   LINE      CODE     ---       #171
      0100203EH   LINE      CODE     ---       #172
      0100204BH   LINE      CODE     ---       #173
      0100204DH   LINE      CODE     ---       #174
      0100205BH   LINE      CODE     ---       #175
LX51 LINKER/LOCATER V4.66.1.0                                                         09/21/2015  00:52:51  PAGE 43


      0100205BH   LINE      CODE     ---       #176
      0100205BH   LINE      CODE     ---       #177
      0100205BH   LINE      CODE     ---       #178
      0100205BH   LINE      CODE     ---       #179
      ---         BLOCKEND  ---      ---       LVL=0

      0100000EH   BLOCK     CODE     ---       LVL=0
      00000005H   SYMBOL    DATA     CHAR      c
      0100000EH   LINE      CODE     ---       #190
      01000010H   LINE      CODE     ---       #191
      01000010H   LINE      CODE     ---       #192
      01000014H   LINE      CODE     ---       #193
      01000014H   LINE      CODE     ---       #194
      01000019H   LINE      CODE     ---       #195
      01000019H   LINE      CODE     ---       #196
      0100001EH   LINE      CODE     ---       #197
      01000020H   LINE      CODE     ---       #198
      ---         BLOCKEND  ---      ---       LVL=0

      01002B27H   BLOCK     CODE     ---       LVL=0
      01002B34H   BLOCK     CODE     NEAR LAB  LVL=1
      00000007H   SYMBOL    DATA     BYTE      c
      00000026H.1 SYMBOL    BIT      BIT       start_trans
      02000000H   SYMBOL    XDATA    CHAR      cnt7f
      ---         BLOCKEND  ---      ---       LVL=1
      01002B27H   LINE      CODE     ---       #217
      01002B34H   LINE      CODE     ---       #220
      01002B36H   LINE      CODE     ---       #222
      01002B39H   LINE      CODE     ---       #223
      01002B39H   LINE      CODE     ---       #224
      01002B3BH   LINE      CODE     ---       #225
      01002B3DH   LINE      CODE     ---       #226
      01002B42H   LINE      CODE     ---       #227
      01002B42H   LINE      CODE     ---       #228
      01002B4FH   LINE      CODE     ---       #229
      01002B4FH   LINE      CODE     ---       #230
      01002B52H   LINE      CODE     ---       #231
      01002B52H   LINE      CODE     ---       #232
      01002B54H   LINE      CODE     ---       #234
      01002B54H   LINE      CODE     ---       #235
      01002B59H   LINE      CODE     ---       #236
      01002B59H   LINE      CODE     ---       #237
      01002B62H   LINE      CODE     ---       #238
      01002B62H   LINE      CODE     ---       #239
      01002B62H   LINE      CODE     ---       #240
      01002B64H   LINE      CODE     ---       #241
      01002B66H   LINE      CODE     ---       #242
      01002B66H   LINE      CODE     ---       #243
      01002B6AH   LINE      CODE     ---       #244
      01002B6CH   LINE      CODE     ---       #245
      01002B6CH   LINE      CODE     ---       #247
      01002B6CH   LINE      CODE     ---       #252
      01002B6CH   LINE      CODE     ---       #253
      01002B6CH   LINE      CODE     ---       #254
      01002B6CH   LINE      CODE     ---       #267
      ---         BLOCKEND  ---      ---       LVL=0

      010028D8H   BLOCK     CODE     ---       LVL=0
      010028E5H   BLOCK     CODE     NEAR LAB  LVL=1
      00000007H   SYMBOL    DATA     BYTE      c
      00000026H.2 SYMBOL    BIT      BIT       start_trans2
      ---         BLOCKEND  ---      ---       LVL=1
      010028D8H   LINE      CODE     ---       #268
      010028E5H   LINE      CODE     ---       #271
      010028E7H   LINE      CODE     ---       #273
LX51 LINKER/LOCATER V4.66.1.0                                                         09/21/2015  00:52:51  PAGE 44


      010028ECH   LINE      CODE     ---       #274
      010028ECH   LINE      CODE     ---       #275
      010028EEH   LINE      CODE     ---       #276
      010028F1H   LINE      CODE     ---       #277
      010028FAH   LINE      CODE     ---       #278
      010028FAH   LINE      CODE     ---       #279
      010028FAH   LINE      CODE     ---       #280
      010028FCH   LINE      CODE     ---       #281
      010028FEH   LINE      CODE     ---       #283
      010028FEH   LINE      CODE     ---       #284
      01002902H   LINE      CODE     ---       #285
      01002904H   LINE      CODE     ---       #286
      01002904H   LINE      CODE     ---       #288
      01002904H   LINE      CODE     ---       #293
      01002904H   LINE      CODE     ---       #294
      01002904H   LINE      CODE     ---       #295
      01002904H   LINE      CODE     ---       #296
      0100290CH   LINE      CODE     ---       #297
      0100290CH   LINE      CODE     ---       #298
      0100290FH   LINE      CODE     ---       #299
      01002915H   LINE      CODE     ---       #300
      01002915H   LINE      CODE     ---       #301
      01002925H   LINE      CODE     ---       #302
      01002932H   LINE      CODE     ---       #303
      01002940H   LINE      CODE     ---       #304
      01002942H   LINE      CODE     ---       #305
      01002944H   LINE      CODE     ---       #306
      01002946H   LINE      CODE     ---       #307
      01002946H   LINE      CODE     ---       #308
      ---         BLOCKEND  ---      ---       LVL=0

      01002951H   BLOCK     CODE     ---       LVL=0
      0100295EH   BLOCK     CODE     NEAR LAB  LVL=1
      00000007H   SYMBOL    DATA     BYTE      c
      00000026H.3 SYMBOL    BIT      BIT       start_trans3
      ---         BLOCKEND  ---      ---       LVL=1
      01002951H   LINE      CODE     ---       #309
      0100295EH   LINE      CODE     ---       #312
      01002960H   LINE      CODE     ---       #313
      01002965H   LINE      CODE     ---       #314
      01002965H   LINE      CODE     ---       #315
      01002967H   LINE      CODE     ---       #316
      0100296AH   LINE      CODE     ---       #317
      01002973H   LINE      CODE     ---       #318
      01002973H   LINE      CODE     ---       #319
      01002973H   LINE      CODE     ---       #320
      01002975H   LINE      CODE     ---       #321
      01002977H   LINE      CODE     ---       #322
      01002977H   LINE      CODE     ---       #323
      0100297BH   LINE      CODE     ---       #324
      0100297DH   LINE      CODE     ---       #325
      0100297DH   LINE      CODE     ---       #327
      0100297DH   LINE      CODE     ---       #332
      0100297DH   LINE      CODE     ---       #333
      0100297DH   LINE      CODE     ---       #334
      0100297DH   LINE      CODE     ---       #335
      01002985H   LINE      CODE     ---       #336
      01002985H   LINE      CODE     ---       #337
      01002988H   LINE      CODE     ---       #338
      0100298EH   LINE      CODE     ---       #339
      0100298EH   LINE      CODE     ---       #340
      0100299EH   LINE      CODE     ---       #341
      010029ABH   LINE      CODE     ---       #342
      010029B9H   LINE      CODE     ---       #343
      010029BBH   LINE      CODE     ---       #344
LX51 LINKER/LOCATER V4.66.1.0                                                         09/21/2015  00:52:51  PAGE 45


      010029BDH   LINE      CODE     ---       #345
      010029BFH   LINE      CODE     ---       #346
      010029BFH   LINE      CODE     ---       #347
      ---         BLOCKEND  ---      ---       LVL=0

      010029CAH   BLOCK     CODE     ---       LVL=0
      010029D7H   BLOCK     CODE     NEAR LAB  LVL=1
      00000007H   SYMBOL    DATA     BYTE      c
      00000026H.4 SYMBOL    BIT      BIT       start_trans4
      ---         BLOCKEND  ---      ---       LVL=1
      010029CAH   LINE      CODE     ---       #348
      010029D7H   LINE      CODE     ---       #351
      010029D9H   LINE      CODE     ---       #353
      010029DEH   LINE      CODE     ---       #354
      010029DEH   LINE      CODE     ---       #355
      010029E0H   LINE      CODE     ---       #356
      010029E3H   LINE      CODE     ---       #357
      010029ECH   LINE      CODE     ---       #358
      010029ECH   LINE      CODE     ---       #359
      010029ECH   LINE      CODE     ---       #360
      010029EEH   LINE      CODE     ---       #361
      010029F0H   LINE      CODE     ---       #363
      010029F0H   LINE      CODE     ---       #364
      010029F4H   LINE      CODE     ---       #365
      010029F6H   LINE      CODE     ---       #366
      010029F6H   LINE      CODE     ---       #368
      010029F6H   LINE      CODE     ---       #373
      010029F6H   LINE      CODE     ---       #374
      010029F6H   LINE      CODE     ---       #375
      010029F6H   LINE      CODE     ---       #376
      010029FEH   LINE      CODE     ---       #377
      010029FEH   LINE      CODE     ---       #378
      01002A01H   LINE      CODE     ---       #379
      01002A07H   LINE      CODE     ---       #380
      01002A07H   LINE      CODE     ---       #381
      01002A17H   LINE      CODE     ---       #382
      01002A24H   LINE      CODE     ---       #383
      01002A32H   LINE      CODE     ---       #384
      01002A34H   LINE      CODE     ---       #385
      01002A36H   LINE      CODE     ---       #386
      01002A38H   LINE      CODE     ---       #387
      01002A38H   LINE      CODE     ---       #388
      ---         BLOCKEND  ---      ---       LVL=0

      0100117AH   BLOCK     CODE     ---       LVL=0
      00000004H   SYMBOL    DATA     DWORD     baud
      02000132H   SYMBOL    XDATA    BYTE      sum
      0100117AH   BLOCK     CODE     NEAR LAB  LVL=1
      02000133H   SYMBOL    XDATA    ---       ellipsis_40
      0200015BH   SYMBOL    XDATA    BYTE      i
      00000007H   SYMBOL    DATA     BYTE      n
      0200015CH   SYMBOL    XDATA    DWORD     j
      02000160H   SYMBOL    XDATA    ---       args
      ---         BLOCKEND  ---      ---       LVL=1
      0100117AH   LINE      CODE     ---       #389
      0100117AH   LINE      CODE     ---       #390
      0100117AH   LINE      CODE     ---       #394
      01001188H   LINE      CODE     ---       #396
      010011A1H   LINE      CODE     ---       #397
      010011BEH   LINE      CODE     ---       #398
      010011E0H   LINE      CODE     ---       #400
      010011E3H   LINE      CODE     ---       #401
      010011E6H   LINE      CODE     ---       #402
      010011E9H   LINE      CODE     ---       #403
      010011FEH   LINE      CODE     ---       #404
LX51 LINKER/LOCATER V4.66.1.0                                                         09/21/2015  00:52:51  PAGE 46


      01001207H   LINE      CODE     ---       #405
      0100120AH   LINE      CODE     ---       #406
      0100120DH   LINE      CODE     ---       #407
      01001210H   LINE      CODE     ---       #410
      0100121FH   LINE      CODE     ---       #411
      0100121FH   LINE      CODE     ---       #412
      01001249H   LINE      CODE     ---       #413
      01001249H   LINE      CODE     ---       #414
      01001249H   LINE      CODE     ---       #415
      0100126CH   LINE      CODE     ---       #416
      0100128FH   LINE      CODE     ---       #417
      01001291H   LINE      CODE     ---       #418
      01001299H   LINE      CODE     ---       #419
      0100129CH   LINE      CODE     ---       #420
      0100129EH   LINE      CODE     ---       #421
      010012A1H   LINE      CODE     ---       #422
      010012A4H   LINE      CODE     ---       #423
      010012A6H   LINE      CODE     ---       #424
      010012A9H   LINE      CODE     ---       #425
      010012A9H   LINE      CODE     ---       #426
      010012CCH   LINE      CODE     ---       #427
      010012EFH   LINE      CODE     ---       #428
      01001312H   LINE      CODE     ---       #429
      01001335H   LINE      CODE     ---       #430
      01001338H   LINE      CODE     ---       #431
      0100133BH   LINE      CODE     ---       #432
      0100133EH   LINE      CODE     ---       #433
      0100133EH   LINE      CODE     ---       #434
      01001361H   LINE      CODE     ---       #435
      01001384H   LINE      CODE     ---       #436
      01001387H   LINE      CODE     ---       #437
      0100138AH   LINE      CODE     ---       #438
      0100138CH   LINE      CODE     ---       #440
      0100138CH   LINE      CODE     ---       #441
      010013AFH   LINE      CODE     ---       #442
      010013D2H   LINE      CODE     ---       #443
      010013D5H   LINE      CODE     ---       #444
      010013D8H   LINE      CODE     ---       #446
      010013D8H   LINE      CODE     ---       #447
      010013D8H   LINE      CODE     ---       #448
      010013D8H   LINE      CODE     ---       #449
      010013D8H   LINE      CODE     ---       #450
      010013DCH   LINE      CODE     ---       #451
      010013DEH   LINE      CODE     ---       #453
      ---         BLOCKEND  ---      ---       LVL=0

      ---         MODULE    ---      ---       ADC
      01003024H   PUBLIC    CODE     ---       _analogRead
      01000026H   PUBLIC    CODE     ---       _analogStart
      01003004H   PUBLIC    CODE     ---       analogResult
      01002FC0H   PUBLIC    CODE     ---       _analogbegin
      000000D8H.2 SFRSYM    DATA     BIT       CCF2
      00000092H   SFRSYM    DATA     BYTE      P1M0
      00000093H   SFRSYM    DATA     BYTE      P0M1
      00000096H   SFRSYM    DATA     BYTE      P2M0
      00000091H   SFRSYM    DATA     BYTE      P1M1
      00000080H   SFRSYM    DATA     BYTE      P0
      000000B2H   SFRSYM    DATA     BYTE      P3M0
      00000095H   SFRSYM    DATA     BYTE      P2M1
      00000090H   SFRSYM    DATA     BYTE      P1
      000000B4H   SFRSYM    DATA     BYTE      P4M0
      000000B1H   SFRSYM    DATA     BYTE      P3M1
      000000A0H   SFRSYM    DATA     BYTE      P2
      000000ABH   SFRSYM    DATA     BYTE      WKTCH
      000000CAH   SFRSYM    DATA     BYTE      P5M0
LX51 LINKER/LOCATER V4.66.1.0                                                         09/21/2015  00:52:51  PAGE 47


      000000B3H   SFRSYM    DATA     BYTE      P4M1
      000000B0H   SFRSYM    DATA     BYTE      P3
      000000CCH   SFRSYM    DATA     BYTE      P6M0
      000000C9H   SFRSYM    DATA     BYTE      P5M1
      000000C0H   SFRSYM    DATA     BYTE      P4
      000000D0H.6 SFRSYM    DATA     BIT       AC
      000000F6H   SFRSYM    DATA     BYTE      PWMIF
      000000E2H   SFRSYM    DATA     BYTE      P7M0
      000000CBH   SFRSYM    DATA     BYTE      P6M1
      000000C8H   SFRSYM    DATA     BYTE      P5
      000000A8H.7 SFRSYM    DATA     BIT       EA
      000000E1H   SFRSYM    DATA     BYTE      P7M1
      000000E8H   SFRSYM    DATA     BYTE      P6
      000000AAH   SFRSYM    DATA     BYTE      WKTCL
      000000F8H   SFRSYM    DATA     BYTE      P7
      000000CEH   SFRSYM    DATA     BYTE      SPCTL
      000000D8H.7 SFRSYM    DATA     BIT       CF
      000000F5H   SFRSYM    DATA     BYTE      PWMCR
      000000F9H   SFRSYM    DATA     BYTE      CH
      000000A2H   SFRSYM    DATA     BYTE      P_SW1
      000000BAH   SFRSYM    DATA     BYTE      P_SW2
      000000A8H.5 SFRSYM    DATA     BIT       EADC
      000000A8H   SFRSYM    DATA     BYTE      IE
      000000E9H   SFRSYM    DATA     BYTE      CL
      000000C5H   SFRSYM    DATA     BYTE      IAP_CMD
      000000FAH   SFRSYM    DATA     BYTE      CCAP0H
      000000FBH   SFRSYM    DATA     BYTE      CCAP1H
      000000FCH   SFRSYM    DATA     BYTE      CCAP2H
      000000BDH   SFRSYM    DATA     BYTE      ADC_RES
      000000EAH   SFRSYM    DATA     BYTE      CCAP0L
      000000D8H.6 SFRSYM    DATA     BIT       CR
      000000F7H   SFRSYM    DATA     BYTE      PWMFDCR
      000000EBH   SFRSYM    DATA     BYTE      CCAP1L
      000000DAH   SFRSYM    DATA     BYTE      CCAPM0
      000000ECH   SFRSYM    DATA     BYTE      CCAP2L
      000000DBH   SFRSYM    DATA     BYTE      CCAPM1
      000000DCH   SFRSYM    DATA     BYTE      CCAPM2
      000000A8H.4 SFRSYM    DATA     BIT       ES
      000000B8H.5 SFRSYM    DATA     BIT       PADC
      000000B8H   SFRSYM    DATA     BYTE      IP
      00000098H   SFRSYM    DATA     BIT       RI
      000000D0H.7 SFRSYM    DATA     BIT       CY
      00000098H.1 SFRSYM    DATA     BIT       TI
      00000097H   SFRSYM    DATA     BYTE      CLK_DIV
      000000C3H   SFRSYM    DATA     BYTE      IAP_ADDRH
      000000B8H.4 SFRSYM    DATA     BIT       PS
      00000081H   SFRSYM    DATA     BYTE      SP
      000000D9H   SFRSYM    DATA     BYTE      CMOD
      000000D8H   SFRSYM    DATA     BYTE      CCON
      000000C4H   SFRSYM    DATA     BYTE      IAP_ADDRL
      000000B8H.7 SFRSYM    DATA     BIT       PPCA
      000000D0H.2 SFRSYM    DATA     BIT       OV
      000000E6H   SFRSYM    DATA     BYTE      CMPCR1
      000000E7H   SFRSYM    DATA     BYTE      CMPCR2
      000000A8H.6 SFRSYM    DATA     BIT       ELVD
      00000080H   SFRSYM    DATA     BIT       P00
      000000BCH   SFRSYM    DATA     BYTE      ADC_CONTR
      00000099H   SFRSYM    DATA     BYTE      SBUF
      00000087H   SFRSYM    DATA     BYTE      PCON
      00000090H   SFRSYM    DATA     BIT       P10
      00000080H.1 SFRSYM    DATA     BIT       P01
      000000A0H   SFRSYM    DATA     BIT       P20
      00000090H.1 SFRSYM    DATA     BIT       P11
      00000080H.2 SFRSYM    DATA     BIT       P02
      000000B0H   SFRSYM    DATA     BIT       P30
LX51 LINKER/LOCATER V4.66.1.0                                                         09/21/2015  00:52:51  PAGE 48


      000000A0H.1 SFRSYM    DATA     BIT       P21
      00000090H.2 SFRSYM    DATA     BIT       P12
      00000080H.3 SFRSYM    DATA     BIT       P03
      00000098H   SFRSYM    DATA     BYTE      SCON
      000000C0H   SFRSYM    DATA     BIT       P40
      000000B0H.1 SFRSYM    DATA     BIT       P31
      000000A0H.2 SFRSYM    DATA     BIT       P22
      00000090H.3 SFRSYM    DATA     BIT       P13
      00000080H.4 SFRSYM    DATA     BIT       P04
      00000089H   SFRSYM    DATA     BYTE      TMOD
      00000088H   SFRSYM    DATA     BYTE      TCON
      000000C8H   SFRSYM    DATA     BIT       P50
      000000C0H.1 SFRSYM    DATA     BIT       P41
      000000B0H.2 SFRSYM    DATA     BIT       P32
      000000A0H.3 SFRSYM    DATA     BIT       P23
      00000090H.4 SFRSYM    DATA     BIT       P14
      00000080H.5 SFRSYM    DATA     BIT       P05
      000000E8H   SFRSYM    DATA     BIT       P60
      000000C8H.1 SFRSYM    DATA     BIT       P51
      000000C0H.2 SFRSYM    DATA     BIT       P42
      000000B0H.3 SFRSYM    DATA     BIT       P33
      000000A0H.4 SFRSYM    DATA     BIT       P24
      00000090H.5 SFRSYM    DATA     BIT       P15
      00000080H.6 SFRSYM    DATA     BIT       P06
      000000B8H.6 SFRSYM    DATA     BIT       PLVD
      000000F8H   SFRSYM    DATA     BIT       P70
      000000E8H.1 SFRSYM    DATA     BIT       P61
      000000C8H.2 SFRSYM    DATA     BIT       P52
      000000C0H.3 SFRSYM    DATA     BIT       P43
      000000B0H.4 SFRSYM    DATA     BIT       P34
      000000A0H.5 SFRSYM    DATA     BIT       P25
      00000090H.6 SFRSYM    DATA     BIT       P16
      00000080H.7 SFRSYM    DATA     BIT       P07
      000000F8H.1 SFRSYM    DATA     BIT       P71
      000000E8H.2 SFRSYM    DATA     BIT       P62
      000000C8H.3 SFRSYM    DATA     BIT       P53
      000000C0H.4 SFRSYM    DATA     BIT       P44
      000000B0H.5 SFRSYM    DATA     BIT       P35
      000000A0H.6 SFRSYM    DATA     BIT       P26
      00000090H.7 SFRSYM    DATA     BIT       P17
      000000F8H.2 SFRSYM    DATA     BIT       P72
      000000E8H.3 SFRSYM    DATA     BIT       P63
      000000C8H.4 SFRSYM    DATA     BIT       P54
      000000C0H.5 SFRSYM    DATA     BIT       P45
      000000B0H.6 SFRSYM    DATA     BIT       P36
      000000A0H.7 SFRSYM    DATA     BIT       P27
      000000F8H.3 SFRSYM    DATA     BIT       P73
      000000E8H.4 SFRSYM    DATA     BIT       P64
      000000C8H.5 SFRSYM    DATA     BIT       P55
      000000C0H.6 SFRSYM    DATA     BIT       P46
      000000B0H.7 SFRSYM    DATA     BIT       P37
      000000F8H.4 SFRSYM    DATA     BIT       P74
      000000E8H.5 SFRSYM    DATA     BIT       P65
      000000C8H.6 SFRSYM    DATA     BIT       P56
      000000C0H.7 SFRSYM    DATA     BIT       P47
      000000F8H.5 SFRSYM    DATA     BIT       P75
      000000E8H.6 SFRSYM    DATA     BIT       P66
      000000C8H.7 SFRSYM    DATA     BIT       P57
      000000F8H.6 SFRSYM    DATA     BIT       P76
      000000E8H.7 SFRSYM    DATA     BIT       P67
      00000088H.1 SFRSYM    DATA     BIT       IE0
      000000A1H   SFRSYM    DATA     BYTE      BUS_SPEED
      000000F8H.7 SFRSYM    DATA     BIT       P77
      00000088H.3 SFRSYM    DATA     BIT       IE1
      000000AFH   SFRSYM    DATA     BYTE      IE2
LX51 LINKER/LOCATER V4.66.1.0                                                         09/21/2015  00:52:51  PAGE 49


      0000008EH   SFRSYM    DATA     BYTE      AUXR
      000000F0H   SFRSYM    DATA     BYTE      B
      000000C7H   SFRSYM    DATA     BYTE      IAP_CONTR
      000000F1H   SFRSYM    DATA     BYTE      PWMCFG
      000000E0H   SFRSYM    DATA     BYTE      ACC
      000000A8H.1 SFRSYM    DATA     BIT       ET0
      00000088H.5 SFRSYM    DATA     BIT       TF0
      000000A8H.3 SFRSYM    DATA     BIT       ET1
      00000088H.7 SFRSYM    DATA     BIT       TF1
      000000B5H   SFRSYM    DATA     BYTE      IP2
      00000098H.2 SFRSYM    DATA     BIT       RB8
      0000008CH   SFRSYM    DATA     BYTE      TH0
      0000008DH   SFRSYM    DATA     BYTE      TH1
      00000088H   SFRSYM    DATA     BIT       IT0
      000000A8H   SFRSYM    DATA     BIT       EX0
      00000098H.3 SFRSYM    DATA     BIT       TB8
      000000D6H   SFRSYM    DATA     BYTE      T2H
      00000088H.2 SFRSYM    DATA     BIT       IT1
      000000A8H.2 SFRSYM    DATA     BIT       EX1
      000000D4H   SFRSYM    DATA     BYTE      T3H
      000000D0H   SFRSYM    DATA     BIT       P
      00000098H.7 SFRSYM    DATA     BIT       SM0
      000000D2H   SFRSYM    DATA     BYTE      T4H
      0000008AH   SFRSYM    DATA     BYTE      TL0
      00000098H.6 SFRSYM    DATA     BIT       SM1
      0000008BH   SFRSYM    DATA     BYTE      TL1
      00000098H.5 SFRSYM    DATA     BIT       SM2
      000000D7H   SFRSYM    DATA     BYTE      T2L
      000000D5H   SFRSYM    DATA     BYTE      T3L
      000000D3H   SFRSYM    DATA     BYTE      T4L
      000000B8H.1 SFRSYM    DATA     BIT       PT0
      000000B8H.3 SFRSYM    DATA     BIT       PT1
      000000D0H.3 SFRSYM    DATA     BIT       RS0
      000000C2H   SFRSYM    DATA     BYTE      IAP_DATA
      00000088H.4 SFRSYM    DATA     BIT       TR0
      000000D0H.4 SFRSYM    DATA     BIT       RS1
      00000088H.6 SFRSYM    DATA     BIT       TR1
      000000C1H   SFRSYM    DATA     BYTE      WDT_CONTR
      000000B8H   SFRSYM    DATA     BIT       PX0
      000000B8H.2 SFRSYM    DATA     BIT       PX1
      000000F2H   SFRSYM    DATA     BYTE      PCA_PWM0
      000000F3H   SFRSYM    DATA     BYTE      PCA_PWM1
      000000F4H   SFRSYM    DATA     BYTE      PCA_PWM2
      0000009DH   SFRSYM    DATA     BYTE      P1ASF
      00000083H   SFRSYM    DATA     BYTE      DPH
      000000D1H   SFRSYM    DATA     BYTE      T3T4M
      000000D1H   SFRSYM    DATA     BYTE      T4T3M
      000000BEH   SFRSYM    DATA     BYTE      ADC_RESL
      00000082H   SFRSYM    DATA     BYTE      DPL
      000000CDH   SFRSYM    DATA     BYTE      SPSTAT
      0000009BH   SFRSYM    DATA     BYTE      S2BUF
      00000097H   SFRSYM    DATA     BYTE      PCON2
      000000ADH   SFRSYM    DATA     BYTE      S3BUF
      00000085H   SFRSYM    DATA     BYTE      S4BUF
      00000098H.4 SFRSYM    DATA     BIT       REN
      0000009AH   SFRSYM    DATA     BYTE      S2CON
      000000ACH   SFRSYM    DATA     BYTE      S3CON
      00000084H   SFRSYM    DATA     BYTE      S4CON
      000000B9H   SFRSYM    DATA     BYTE      SADEN
      000000A9H   SFRSYM    DATA     BYTE      SADDR
      000000C6H   SFRSYM    DATA     BYTE      IAP_TRIG
      000000A2H   SFRSYM    DATA     BYTE      AUXR1
      000000D0H.5 SFRSYM    DATA     BIT       F0
      0000008FH   SFRSYM    DATA     BYTE      INT_CLKO
      000000D0H   SFRSYM    DATA     BYTE      PSW
LX51 LINKER/LOCATER V4.66.1.0                                                         09/21/2015  00:52:51  PAGE 50


      000000D8H   SFRSYM    DATA     BIT       CCF0
      000000D8H.1 SFRSYM    DATA     BIT       CCF1
      000000CFH   SFRSYM    DATA     BYTE      SPDAT
      00000094H   SFRSYM    DATA     BYTE      P0M0

      01002FC0H   BLOCK     CODE     ---       LVL=0
      00000007H   SYMBOL    DATA     BYTE      pin
      01002FC0H   LINE      CODE     ---       #12
      01002FC0H   LINE      CODE     ---       #13
      01002FC0H   LINE      CODE     ---       #14
      01002FC6H   LINE      CODE     ---       #15
      01002FD3H   LINE      CODE     ---       #16
      01002FDBH   LINE      CODE     ---       #17
      01002FDEH   LINE      CODE     ---       #19
      01002FE1H   LINE      CODE     ---       #20
      ---         BLOCKEND  ---      ---       LVL=0

      01003004H   BLOCK     CODE     ---       LVL=0
      01003004H   BLOCK     CODE     NEAR LAB  LVL=1
      00000006H   SYMBOL    DATA     WORD      adc
      ---         BLOCKEND  ---      ---       LVL=1
      01003004H   LINE      CODE     ---       #30
      01003004H   LINE      CODE     ---       #31
      01003004H   LINE      CODE     ---       #33
      01003007H   LINE      CODE     ---       #34
      0100300BH   LINE      CODE     ---       #35
      0100301EH   LINE      CODE     ---       #36
      01003021H   LINE      CODE     ---       #37
      01003023H   LINE      CODE     ---       #38
      01003023H   LINE      CODE     ---       #39
      ---         BLOCKEND  ---      ---       LVL=0

      01000026H   BLOCK     CODE     ---       LVL=0
      00000007H   SYMBOL    DATA     BYTE      pin
      01000026H   LINE      CODE     ---       #49
      01000026H   LINE      CODE     ---       #50
      01000026H   LINE      CODE     ---       #51
      0100002CH   LINE      CODE     ---       #52
      01000038H   LINE      CODE     ---       #53
      01000041H   LINE      CODE     ---       #54
      ---         BLOCKEND  ---      ---       LVL=0

      01003024H   BLOCK     CODE     ---       LVL=0
      00000006H   SYMBOL    DATA     BYTE      pin
      01003026H   BLOCK     CODE     NEAR LAB  LVL=1
      00000006H   SYMBOL    DATA     WORD      adc
      00000004H   SYMBOL    DATA     BYTE      i
      ---         BLOCKEND  ---      ---       LVL=1
      01003024H   LINE      CODE     ---       #64
      01003026H   LINE      CODE     ---       #65
      01003026H   LINE      CODE     ---       #68
      01003029H   LINE      CODE     ---       #69
      0100302CH   LINE      CODE     ---       #70
      0100302EH   LINE      CODE     ---       #71
      0100302EH   LINE      CODE     ---       #72
      01003033H   LINE      CODE     ---       #73
      01003033H   LINE      CODE     ---       #74
      01003036H   LINE      CODE     ---       #75
      01003036H   LINE      CODE     ---       #76
      01003036H   LINE      CODE     ---       #77
      0100303BH   LINE      CODE     ---       #78
      0100303FH   LINE      CODE     ---       #79
      ---         BLOCKEND  ---      ---       LVL=0

      ---         MODULE    ---      ---       DELAY
LX51 LINKER/LOCATER V4.66.1.0                                                         09/21/2015  00:52:51  PAGE 51


      0100008EH   PUBLIC    CODE     ---       _delay_us
      01002FE2H   PUBLIC    CODE     ---       _delay_ms
      000000D8H.2 SFRSYM    DATA     BIT       CCF2
      00000092H   SFRSYM    DATA     BYTE      P1M0
      00000093H   SFRSYM    DATA     BYTE      P0M1
      00000096H   SFRSYM    DATA     BYTE      P2M0
      00000091H   SFRSYM    DATA     BYTE      P1M1
      00000080H   SFRSYM    DATA     BYTE      P0
      000000B2H   SFRSYM    DATA     BYTE      P3M0
      00000095H   SFRSYM    DATA     BYTE      P2M1
      00000090H   SFRSYM    DATA     BYTE      P1
      000000B4H   SFRSYM    DATA     BYTE      P4M0
      000000B1H   SFRSYM    DATA     BYTE      P3M1
      000000A0H   SFRSYM    DATA     BYTE      P2
      000000ABH   SFRSYM    DATA     BYTE      WKTCH
      000000CAH   SFRSYM    DATA     BYTE      P5M0
      000000B3H   SFRSYM    DATA     BYTE      P4M1
      000000B0H   SFRSYM    DATA     BYTE      P3
      000000CCH   SFRSYM    DATA     BYTE      P6M0
      000000C9H   SFRSYM    DATA     BYTE      P5M1
      000000C0H   SFRSYM    DATA     BYTE      P4
      000000D0H.6 SFRSYM    DATA     BIT       AC
      000000F6H   SFRSYM    DATA     BYTE      PWMIF
      000000E2H   SFRSYM    DATA     BYTE      P7M0
      000000CBH   SFRSYM    DATA     BYTE      P6M1
      000000C8H   SFRSYM    DATA     BYTE      P5
      000000A8H.7 SFRSYM    DATA     BIT       EA
      000000E1H   SFRSYM    DATA     BYTE      P7M1
      000000E8H   SFRSYM    DATA     BYTE      P6
      000000AAH   SFRSYM    DATA     BYTE      WKTCL
      000000F8H   SFRSYM    DATA     BYTE      P7
      000000CEH   SFRSYM    DATA     BYTE      SPCTL
      000000D8H.7 SFRSYM    DATA     BIT       CF
      000000F5H   SFRSYM    DATA     BYTE      PWMCR
      000000F9H   SFRSYM    DATA     BYTE      CH
      000000A2H   SFRSYM    DATA     BYTE      P_SW1
      000000BAH   SFRSYM    DATA     BYTE      P_SW2
      000000A8H.5 SFRSYM    DATA     BIT       EADC
      000000A8H   SFRSYM    DATA     BYTE      IE
      000000E9H   SFRSYM    DATA     BYTE      CL
      000000C5H   SFRSYM    DATA     BYTE      IAP_CMD
      000000FAH   SFRSYM    DATA     BYTE      CCAP0H
      000000FBH   SFRSYM    DATA     BYTE      CCAP1H
      000000FCH   SFRSYM    DATA     BYTE      CCAP2H
      000000BDH   SFRSYM    DATA     BYTE      ADC_RES
      000000EAH   SFRSYM    DATA     BYTE      CCAP0L
      000000D8H.6 SFRSYM    DATA     BIT       CR
      000000F7H   SFRSYM    DATA     BYTE      PWMFDCR
      000000EBH   SFRSYM    DATA     BYTE      CCAP1L
      000000DAH   SFRSYM    DATA     BYTE      CCAPM0
      000000ECH   SFRSYM    DATA     BYTE      CCAP2L
      000000DBH   SFRSYM    DATA     BYTE      CCAPM1
      000000DCH   SFRSYM    DATA     BYTE      CCAPM2
      000000A8H.4 SFRSYM    DATA     BIT       ES
      000000B8H.5 SFRSYM    DATA     BIT       PADC
      000000B8H   SFRSYM    DATA     BYTE      IP
      00000098H   SFRSYM    DATA     BIT       RI
      000000D0H.7 SFRSYM    DATA     BIT       CY
      00000098H.1 SFRSYM    DATA     BIT       TI
      00000097H   SFRSYM    DATA     BYTE      CLK_DIV
      000000C3H   SFRSYM    DATA     BYTE      IAP_ADDRH
      000000B8H.4 SFRSYM    DATA     BIT       PS
      00000081H   SFRSYM    DATA     BYTE      SP
      000000D9H   SFRSYM    DATA     BYTE      CMOD
      000000D8H   SFRSYM    DATA     BYTE      CCON
LX51 LINKER/LOCATER V4.66.1.0                                                         09/21/2015  00:52:51  PAGE 52


      000000C4H   SFRSYM    DATA     BYTE      IAP_ADDRL
      000000B8H.7 SFRSYM    DATA     BIT       PPCA
      000000D0H.2 SFRSYM    DATA     BIT       OV
      000000E6H   SFRSYM    DATA     BYTE      CMPCR1
      000000E7H   SFRSYM    DATA     BYTE      CMPCR2
      000000A8H.6 SFRSYM    DATA     BIT       ELVD
      00000080H   SFRSYM    DATA     BIT       P00
      000000BCH   SFRSYM    DATA     BYTE      ADC_CONTR
      00000099H   SFRSYM    DATA     BYTE      SBUF
      00000087H   SFRSYM    DATA     BYTE      PCON
      00000090H   SFRSYM    DATA     BIT       P10
      00000080H.1 SFRSYM    DATA     BIT       P01
      000000A0H   SFRSYM    DATA     BIT       P20
      00000090H.1 SFRSYM    DATA     BIT       P11
      00000080H.2 SFRSYM    DATA     BIT       P02
      000000B0H   SFRSYM    DATA     BIT       P30
      000000A0H.1 SFRSYM    DATA     BIT       P21
      00000090H.2 SFRSYM    DATA     BIT       P12
      00000080H.3 SFRSYM    DATA     BIT       P03
      00000098H   SFRSYM    DATA     BYTE      SCON
      000000C0H   SFRSYM    DATA     BIT       P40
      000000B0H.1 SFRSYM    DATA     BIT       P31
      000000A0H.2 SFRSYM    DATA     BIT       P22
      00000090H.3 SFRSYM    DATA     BIT       P13
      00000080H.4 SFRSYM    DATA     BIT       P04
      00000089H   SFRSYM    DATA     BYTE      TMOD
      00000088H   SFRSYM    DATA     BYTE      TCON
      000000C8H   SFRSYM    DATA     BIT       P50
      000000C0H.1 SFRSYM    DATA     BIT       P41
      000000B0H.2 SFRSYM    DATA     BIT       P32
      000000A0H.3 SFRSYM    DATA     BIT       P23
      00000090H.4 SFRSYM    DATA     BIT       P14
      00000080H.5 SFRSYM    DATA     BIT       P05
      000000E8H   SFRSYM    DATA     BIT       P60
      000000C8H.1 SFRSYM    DATA     BIT       P51
      000000C0H.2 SFRSYM    DATA     BIT       P42
      000000B0H.3 SFRSYM    DATA     BIT       P33
      000000A0H.4 SFRSYM    DATA     BIT       P24
      00000090H.5 SFRSYM    DATA     BIT       P15
      00000080H.6 SFRSYM    DATA     BIT       P06
      000000B8H.6 SFRSYM    DATA     BIT       PLVD
      000000F8H   SFRSYM    DATA     BIT       P70
      000000E8H.1 SFRSYM    DATA     BIT       P61
      000000C8H.2 SFRSYM    DATA     BIT       P52
      000000C0H.3 SFRSYM    DATA     BIT       P43
      000000B0H.4 SFRSYM    DATA     BIT       P34
      000000A0H.5 SFRSYM    DATA     BIT       P25
      00000090H.6 SFRSYM    DATA     BIT       P16
      00000080H.7 SFRSYM    DATA     BIT       P07
      000000F8H.1 SFRSYM    DATA     BIT       P71
      000000E8H.2 SFRSYM    DATA     BIT       P62
      000000C8H.3 SFRSYM    DATA     BIT       P53
      000000C0H.4 SFRSYM    DATA     BIT       P44
      000000B0H.5 SFRSYM    DATA     BIT       P35
      000000A0H.6 SFRSYM    DATA     BIT       P26
      00000090H.7 SFRSYM    DATA     BIT       P17
      000000F8H.2 SFRSYM    DATA     BIT       P72
      000000E8H.3 SFRSYM    DATA     BIT       P63
      000000C8H.4 SFRSYM    DATA     BIT       P54
      000000C0H.5 SFRSYM    DATA     BIT       P45
      000000B0H.6 SFRSYM    DATA     BIT       P36
      000000A0H.7 SFRSYM    DATA     BIT       P27
      000000F8H.3 SFRSYM    DATA     BIT       P73
      000000E8H.4 SFRSYM    DATA     BIT       P64
      000000C8H.5 SFRSYM    DATA     BIT       P55
LX51 LINKER/LOCATER V4.66.1.0                                                         09/21/2015  00:52:51  PAGE 53


      000000C0H.6 SFRSYM    DATA     BIT       P46
      000000B0H.7 SFRSYM    DATA     BIT       P37
      000000F8H.4 SFRSYM    DATA     BIT       P74
      000000E8H.5 SFRSYM    DATA     BIT       P65
      000000C8H.6 SFRSYM    DATA     BIT       P56
      000000C0H.7 SFRSYM    DATA     BIT       P47
      000000F8H.5 SFRSYM    DATA     BIT       P75
      000000E8H.6 SFRSYM    DATA     BIT       P66
      000000C8H.7 SFRSYM    DATA     BIT       P57
      000000F8H.6 SFRSYM    DATA     BIT       P76
      000000E8H.7 SFRSYM    DATA     BIT       P67
      00000088H.1 SFRSYM    DATA     BIT       IE0
      000000A1H   SFRSYM    DATA     BYTE      BUS_SPEED
      000000F8H.7 SFRSYM    DATA     BIT       P77
      00000088H.3 SFRSYM    DATA     BIT       IE1
      000000AFH   SFRSYM    DATA     BYTE      IE2
      0000008EH   SFRSYM    DATA     BYTE      AUXR
      000000F0H   SFRSYM    DATA     BYTE      B
      000000C7H   SFRSYM    DATA     BYTE      IAP_CONTR
      000000F1H   SFRSYM    DATA     BYTE      PWMCFG
      000000E0H   SFRSYM    DATA     BYTE      ACC
      000000A8H.1 SFRSYM    DATA     BIT       ET0
      00000088H.5 SFRSYM    DATA     BIT       TF0
      000000A8H.3 SFRSYM    DATA     BIT       ET1
      00000088H.7 SFRSYM    DATA     BIT       TF1
      000000B5H   SFRSYM    DATA     BYTE      IP2
      00000098H.2 SFRSYM    DATA     BIT       RB8
      0000008CH   SFRSYM    DATA     BYTE      TH0
      0000008DH   SFRSYM    DATA     BYTE      TH1
      00000088H   SFRSYM    DATA     BIT       IT0
      000000A8H   SFRSYM    DATA     BIT       EX0
      00000098H.3 SFRSYM    DATA     BIT       TB8
      000000D6H   SFRSYM    DATA     BYTE      T2H
      00000088H.2 SFRSYM    DATA     BIT       IT1
      000000A8H.2 SFRSYM    DATA     BIT       EX1
      000000D4H   SFRSYM    DATA     BYTE      T3H
      000000D0H   SFRSYM    DATA     BIT       P
      00000098H.7 SFRSYM    DATA     BIT       SM0
      000000D2H   SFRSYM    DATA     BYTE      T4H
      0000008AH   SFRSYM    DATA     BYTE      TL0
      00000098H.6 SFRSYM    DATA     BIT       SM1
      0000008BH   SFRSYM    DATA     BYTE      TL1
      00000098H.5 SFRSYM    DATA     BIT       SM2
      000000D7H   SFRSYM    DATA     BYTE      T2L
      000000D5H   SFRSYM    DATA     BYTE      T3L
      000000D3H   SFRSYM    DATA     BYTE      T4L
      000000B8H.1 SFRSYM    DATA     BIT       PT0
      000000B8H.3 SFRSYM    DATA     BIT       PT1
      000000D0H.3 SFRSYM    DATA     BIT       RS0
      000000C2H   SFRSYM    DATA     BYTE      IAP_DATA
      00000088H.4 SFRSYM    DATA     BIT       TR0
      000000D0H.4 SFRSYM    DATA     BIT       RS1
      00000088H.6 SFRSYM    DATA     BIT       TR1
      000000C1H   SFRSYM    DATA     BYTE      WDT_CONTR
      000000B8H   SFRSYM    DATA     BIT       PX0
      000000B8H.2 SFRSYM    DATA     BIT       PX1
      000000F2H   SFRSYM    DATA     BYTE      PCA_PWM0
      000000F3H   SFRSYM    DATA     BYTE      PCA_PWM1
      000000F4H   SFRSYM    DATA     BYTE      PCA_PWM2
      0000009DH   SFRSYM    DATA     BYTE      P1ASF
      00000083H   SFRSYM    DATA     BYTE      DPH
      000000D1H   SFRSYM    DATA     BYTE      T3T4M
      000000D1H   SFRSYM    DATA     BYTE      T4T3M
      000000BEH   SFRSYM    DATA     BYTE      ADC_RESL
      00000082H   SFRSYM    DATA     BYTE      DPL
LX51 LINKER/LOCATER V4.66.1.0                                                         09/21/2015  00:52:51  PAGE 54


      000000CDH   SFRSYM    DATA     BYTE      SPSTAT
      0000009BH   SFRSYM    DATA     BYTE      S2BUF
      00000097H   SFRSYM    DATA     BYTE      PCON2
      000000ADH   SFRSYM    DATA     BYTE      S3BUF
      00000085H   SFRSYM    DATA     BYTE      S4BUF
      00000098H.4 SFRSYM    DATA     BIT       REN
      0000009AH   SFRSYM    DATA     BYTE      S2CON
      000000ACH   SFRSYM    DATA     BYTE      S3CON
      00000084H   SFRSYM    DATA     BYTE      S4CON
      000000B9H   SFRSYM    DATA     BYTE      SADEN
      000000A9H   SFRSYM    DATA     BYTE      SADDR
      000000C6H   SFRSYM    DATA     BYTE      IAP_TRIG
      000000A2H   SFRSYM    DATA     BYTE      AUXR1
      000000D0H.5 SFRSYM    DATA     BIT       F0
      0000008FH   SFRSYM    DATA     BYTE      INT_CLKO
      000000D0H   SFRSYM    DATA     BYTE      PSW
      000000D8H   SFRSYM    DATA     BIT       CCF0
      000000D8H.1 SFRSYM    DATA     BIT       CCF1
      000000CFH   SFRSYM    DATA     BYTE      SPDAT
      00000094H   SFRSYM    DATA     BYTE      P0M0

      01002FE2H   BLOCK     CODE     ---       LVL=0
      0200012EH   SYMBOL    XDATA    DWORD     ms
      01002FE8H   BLOCK     CODE     NEAR LAB  LVL=1
      00000006H   SYMBOL    DATA     WORD      i
      ---         BLOCKEND  ---      ---       LVL=1
      01002FE2H   LINE      CODE     ---       #29
      01002FE8H   LINE      CODE     ---       #30
      01002FE8H   LINE      CODE     ---       #32
      01002FE8H   LINE      CODE     ---       #33
      01002FECH   LINE      CODE     ---       #34
      01002FF5H   LINE      CODE     ---       #35
      01003003H   LINE      CODE     ---       #36
      ---         BLOCKEND  ---      ---       LVL=0

      0100008EH   BLOCK     CODE     ---       LVL=0
      00000007H   SYMBOL    DATA     BYTE      _us
      0100008EH   LINE      CODE     ---       #46
      0100008EH   LINE      CODE     ---       #47
      0100008EH   LINE      CODE     ---       #48
      0100008EH   LINE      CODE     ---       #50
      0100008FH   LINE      CODE     ---       #72
      0100008FH   LINE      CODE     ---       #73
      01000091H   LINE      CODE     ---       #74
      ---         BLOCKEND  ---      ---       LVL=0
      00000006H   SYMBOL    DATA     WORD      _10us
      00000004H   SYMBOL    DATA     WORD      i

      ---         MODULE    ---      ---       NRF24L01
      00000022H.4 PUBLIC    DATA     BIT       MAX_RT
      00000022H   PUBLIC    DATA     BIT       TX_FULL
      00000022H.5 PUBLIC    DATA     BIT       TX_DS
      00000022H.6 PUBLIC    DATA     BIT       RX_DR
      00000022H   PUBLIC    DATA     BYTE      sta
      010037BAH   PUBLIC    CONST    ---       RX_ADDRESS
      010037B5H   PUBLIC    CONST    ---       TX_ADDRESS
      01002F97H   PUBLIC    CODE     ---       _nRF24L01_TxPacket
      01002B77H   PUBLIC    CODE     ---       _nRF24L01_RxPacket
      01003095H   PUBLIC    CODE     ---       SetRX_Mode
      0200016EH   PUBLIC    XDATA    BYTE      ?_SPI_Write_Buf?BYTE
      01002F03H   PUBLIC    CODE     ---       _SPI_Write_Buf
      02000172H   PUBLIC    XDATA    BYTE      ?_SPI_Read_Buf?BYTE
      01002E9BH   PUBLIC    CODE     ---       _SPI_Read_Buf
      0100305BH   PUBLIC    CODE     ---       _SPI_RW_Reg
      01002F67H   PUBLIC    CODE     ---       _SPI_Read
LX51 LINKER/LOCATER V4.66.1.0                                                         09/21/2015  00:52:51  PAGE 55


      01002AC0H   PUBLIC    CODE     ---       _SPI_RW
      01002BC3H   PUBLIC    CODE     ---       init_NRF24L01
      000000E0H.7 SFRSYM    DATA     BIT       ACC7
      000000D8H.2 SFRSYM    DATA     BIT       CCF2
      00000092H   SFRSYM    DATA     BYTE      P1M0
      00000093H   SFRSYM    DATA     BYTE      P0M1
      00000096H   SFRSYM    DATA     BYTE      P2M0
      00000091H   SFRSYM    DATA     BYTE      P1M1
      00000080H   SFRSYM    DATA     BYTE      P0
      000000B2H   SFRSYM    DATA     BYTE      P3M0
      00000095H   SFRSYM    DATA     BYTE      P2M1
      00000090H   SFRSYM    DATA     BYTE      P1
      000000B4H   SFRSYM    DATA     BYTE      P4M0
      000000B1H   SFRSYM    DATA     BYTE      P3M1
      000000A0H   SFRSYM    DATA     BYTE      P2
      000000ABH   SFRSYM    DATA     BYTE      WKTCH
      000000CAH   SFRSYM    DATA     BYTE      P5M0
      000000B3H   SFRSYM    DATA     BYTE      P4M1
      000000B0H   SFRSYM    DATA     BYTE      P3
      000000CCH   SFRSYM    DATA     BYTE      P6M0
      000000C9H   SFRSYM    DATA     BYTE      P5M1
      000000C0H   SFRSYM    DATA     BYTE      P4
      000000D0H.6 SFRSYM    DATA     BIT       AC
      000000F6H   SFRSYM    DATA     BYTE      PWMIF
      000000E2H   SFRSYM    DATA     BYTE      P7M0
      000000CBH   SFRSYM    DATA     BYTE      P6M1
      000000C8H   SFRSYM    DATA     BYTE      P5
      000000A8H.7 SFRSYM    DATA     BIT       EA
      000000E1H   SFRSYM    DATA     BYTE      P7M1
      000000E8H   SFRSYM    DATA     BYTE      P6
      000000A0H.1 SFRSYM    DATA     BIT       P_24L01_SCK
      000000AAH   SFRSYM    DATA     BYTE      WKTCL
      000000F8H   SFRSYM    DATA     BYTE      P7
      000000A0H   SFRSYM    DATA     BIT       CE
      000000CEH   SFRSYM    DATA     BYTE      SPCTL
      000000D8H.7 SFRSYM    DATA     BIT       CF
      000000C0H.4 SFRSYM    DATA     BIT       P_24L01_CSN
      000000F5H   SFRSYM    DATA     BYTE      PWMCR
      000000F9H   SFRSYM    DATA     BYTE      CH
      000000A2H   SFRSYM    DATA     BYTE      P_SW1
      000000BAH   SFRSYM    DATA     BYTE      P_SW2
      000000A8H.5 SFRSYM    DATA     BIT       EADC
      000000A8H   SFRSYM    DATA     BYTE      IE
      000000E9H   SFRSYM    DATA     BYTE      CL
      000000C5H   SFRSYM    DATA     BYTE      IAP_CMD
      000000FAH   SFRSYM    DATA     BYTE      CCAP0H
      000000B0H.2 SFRSYM    DATA     BIT       P_24L01_IRQ
      000000FBH   SFRSYM    DATA     BYTE      CCAP1H
      000000FCH   SFRSYM    DATA     BYTE      CCAP2H
      000000BDH   SFRSYM    DATA     BYTE      ADC_RES
      000000EAH   SFRSYM    DATA     BYTE      CCAP0L
      000000D8H.6 SFRSYM    DATA     BIT       CR
      000000F7H   SFRSYM    DATA     BYTE      PWMFDCR
      000000EBH   SFRSYM    DATA     BYTE      CCAP1L
      000000DAH   SFRSYM    DATA     BYTE      CCAPM0
      000000ECH   SFRSYM    DATA     BYTE      CCAP2L
      000000DBH   SFRSYM    DATA     BYTE      CCAPM1
      000000DCH   SFRSYM    DATA     BYTE      CCAPM2
      000000A8H.4 SFRSYM    DATA     BIT       ES
      000000B8H.5 SFRSYM    DATA     BIT       PADC
      000000B8H   SFRSYM    DATA     BYTE      IP
      00000098H   SFRSYM    DATA     BIT       RI
      000000D0H.7 SFRSYM    DATA     BIT       CY
      00000098H.1 SFRSYM    DATA     BIT       TI
      00000097H   SFRSYM    DATA     BYTE      CLK_DIV
LX51 LINKER/LOCATER V4.66.1.0                                                         09/21/2015  00:52:51  PAGE 56


      000000C3H   SFRSYM    DATA     BYTE      IAP_ADDRH
      000000B8H.4 SFRSYM    DATA     BIT       PS
      00000081H   SFRSYM    DATA     BYTE      SP
      000000D9H   SFRSYM    DATA     BYTE      CMOD
      000000D8H   SFRSYM    DATA     BYTE      CCON
      000000C4H   SFRSYM    DATA     BYTE      IAP_ADDRL
      000000B8H.7 SFRSYM    DATA     BIT       PPCA
      000000D0H.2 SFRSYM    DATA     BIT       OV
      000000E6H   SFRSYM    DATA     BYTE      CMPCR1
      000000E7H   SFRSYM    DATA     BYTE      CMPCR2
      000000A8H.6 SFRSYM    DATA     BIT       ELVD
      000000A0H   SFRSYM    DATA     BIT       P_24L01_CE
      00000080H   SFRSYM    DATA     BIT       P00
      000000BCH   SFRSYM    DATA     BYTE      ADC_CONTR
      00000099H   SFRSYM    DATA     BYTE      SBUF
      00000087H   SFRSYM    DATA     BYTE      PCON
      00000090H   SFRSYM    DATA     BIT       P10
      00000080H.1 SFRSYM    DATA     BIT       P01
      000000A0H   SFRSYM    DATA     BIT       P20
      00000090H.1 SFRSYM    DATA     BIT       P11
      00000080H.2 SFRSYM    DATA     BIT       P02
      000000B0H   SFRSYM    DATA     BIT       P30
      000000A0H.1 SFRSYM    DATA     BIT       P21
      00000090H.2 SFRSYM    DATA     BIT       P12
      00000080H.3 SFRSYM    DATA     BIT       P03
      00000098H   SFRSYM    DATA     BYTE      SCON
      000000C0H   SFRSYM    DATA     BIT       P40
      000000B0H.1 SFRSYM    DATA     BIT       P31
      000000A0H.2 SFRSYM    DATA     BIT       P22
      00000090H.3 SFRSYM    DATA     BIT       P13
      00000080H.4 SFRSYM    DATA     BIT       P04
      00000089H   SFRSYM    DATA     BYTE      TMOD
      00000088H   SFRSYM    DATA     BYTE      TCON
      000000C8H   SFRSYM    DATA     BIT       P50
      000000C0H.1 SFRSYM    DATA     BIT       P41
      000000B0H.2 SFRSYM    DATA     BIT       P32
      000000A0H.3 SFRSYM    DATA     BIT       P23
      00000090H.4 SFRSYM    DATA     BIT       P14
      00000080H.5 SFRSYM    DATA     BIT       P05
      000000E8H   SFRSYM    DATA     BIT       P60
      000000C8H.1 SFRSYM    DATA     BIT       P51
      000000C0H.2 SFRSYM    DATA     BIT       P42
      000000B0H.3 SFRSYM    DATA     BIT       P33
      000000A0H.4 SFRSYM    DATA     BIT       P24
      00000090H.5 SFRSYM    DATA     BIT       P15
      00000080H.6 SFRSYM    DATA     BIT       P06
      000000B8H.6 SFRSYM    DATA     BIT       PLVD
      000000F8H   SFRSYM    DATA     BIT       P70
      000000E8H.1 SFRSYM    DATA     BIT       P61
      000000C8H.2 SFRSYM    DATA     BIT       P52
      000000C0H.3 SFRSYM    DATA     BIT       P43
      000000B0H.4 SFRSYM    DATA     BIT       P34
      000000A0H.5 SFRSYM    DATA     BIT       P25
      00000090H.6 SFRSYM    DATA     BIT       P16
      00000080H.7 SFRSYM    DATA     BIT       P07
      000000F8H.1 SFRSYM    DATA     BIT       P71
      000000E8H.2 SFRSYM    DATA     BIT       P62
      000000C8H.3 SFRSYM    DATA     BIT       P53
      000000C0H.4 SFRSYM    DATA     BIT       P44
      000000B0H.5 SFRSYM    DATA     BIT       P35
      000000A0H.6 SFRSYM    DATA     BIT       P26
      00000090H.7 SFRSYM    DATA     BIT       P17
      000000A0H.2 SFRSYM    DATA     BIT       MISO
      000000A0H.3 SFRSYM    DATA     BIT       MOSI
      000000F8H.2 SFRSYM    DATA     BIT       P72
LX51 LINKER/LOCATER V4.66.1.0                                                         09/21/2015  00:52:51  PAGE 57


      000000E8H.3 SFRSYM    DATA     BIT       P63
      000000C8H.4 SFRSYM    DATA     BIT       P54
      000000C0H.5 SFRSYM    DATA     BIT       P45
      000000B0H.6 SFRSYM    DATA     BIT       P36
      000000A0H.7 SFRSYM    DATA     BIT       P27
      000000F8H.3 SFRSYM    DATA     BIT       P73
      000000E8H.4 SFRSYM    DATA     BIT       P64
      000000C8H.5 SFRSYM    DATA     BIT       P55
      000000C0H.6 SFRSYM    DATA     BIT       P46
      000000B0H.7 SFRSYM    DATA     BIT       P37
      000000F8H.4 SFRSYM    DATA     BIT       P74
      000000E8H.5 SFRSYM    DATA     BIT       P65
      000000C8H.6 SFRSYM    DATA     BIT       P56
      000000C0H.7 SFRSYM    DATA     BIT       P47
      000000F8H.5 SFRSYM    DATA     BIT       P75
      000000E8H.6 SFRSYM    DATA     BIT       P66
      000000C8H.7 SFRSYM    DATA     BIT       P57
      000000F8H.6 SFRSYM    DATA     BIT       P76
      000000E8H.7 SFRSYM    DATA     BIT       P67
      00000088H.1 SFRSYM    DATA     BIT       IE0
      000000A1H   SFRSYM    DATA     BYTE      BUS_SPEED
      000000F8H.7 SFRSYM    DATA     BIT       P77
      00000088H.3 SFRSYM    DATA     BIT       IE1
      000000AFH   SFRSYM    DATA     BYTE      IE2
      0000008EH   SFRSYM    DATA     BYTE      AUXR
      000000F0H   SFRSYM    DATA     BYTE      B
      000000C7H   SFRSYM    DATA     BYTE      IAP_CONTR
      000000F1H   SFRSYM    DATA     BYTE      PWMCFG
      000000E0H   SFRSYM    DATA     BYTE      ACC
      000000A8H.1 SFRSYM    DATA     BIT       ET0
      00000088H.5 SFRSYM    DATA     BIT       TF0
      000000A8H.3 SFRSYM    DATA     BIT       ET1
      00000088H.7 SFRSYM    DATA     BIT       TF1
      000000B5H   SFRSYM    DATA     BYTE      IP2
      00000098H.2 SFRSYM    DATA     BIT       RB8
      0000008CH   SFRSYM    DATA     BYTE      TH0
      0000008DH   SFRSYM    DATA     BYTE      TH1
      00000088H   SFRSYM    DATA     BIT       IT0
      000000A8H   SFRSYM    DATA     BIT       EX0
      00000098H.3 SFRSYM    DATA     BIT       TB8
      000000D6H   SFRSYM    DATA     BYTE      T2H
      00000088H.2 SFRSYM    DATA     BIT       IT1
      000000A8H.2 SFRSYM    DATA     BIT       EX1
      000000D4H   SFRSYM    DATA     BYTE      T3H
      000000D0H   SFRSYM    DATA     BIT       P
      00000098H.7 SFRSYM    DATA     BIT       SM0
      000000D2H   SFRSYM    DATA     BYTE      T4H
      0000008AH   SFRSYM    DATA     BYTE      TL0
      00000098H.6 SFRSYM    DATA     BIT       SM1
      0000008BH   SFRSYM    DATA     BYTE      TL1
      00000098H.5 SFRSYM    DATA     BIT       SM2
      000000D7H   SFRSYM    DATA     BYTE      T2L
      000000D5H   SFRSYM    DATA     BYTE      T3L
      000000D3H   SFRSYM    DATA     BYTE      T4L
      000000B8H.1 SFRSYM    DATA     BIT       PT0
      000000B8H.3 SFRSYM    DATA     BIT       PT1
      000000D0H.3 SFRSYM    DATA     BIT       RS0
      000000C2H   SFRSYM    DATA     BYTE      IAP_DATA
      00000088H.4 SFRSYM    DATA     BIT       TR0
      000000D0H.4 SFRSYM    DATA     BIT       RS1
      00000088H.6 SFRSYM    DATA     BIT       TR1
      000000C1H   SFRSYM    DATA     BYTE      WDT_CONTR
      000000B8H   SFRSYM    DATA     BIT       PX0
      000000B8H.2 SFRSYM    DATA     BIT       PX1
      000000F2H   SFRSYM    DATA     BYTE      PCA_PWM0
LX51 LINKER/LOCATER V4.66.1.0                                                         09/21/2015  00:52:51  PAGE 58


      000000F3H   SFRSYM    DATA     BYTE      PCA_PWM1
      000000F4H   SFRSYM    DATA     BYTE      PCA_PWM2
      0000009DH   SFRSYM    DATA     BYTE      P1ASF
      00000083H   SFRSYM    DATA     BYTE      DPH
      000000D1H   SFRSYM    DATA     BYTE      T3T4M
      000000D1H   SFRSYM    DATA     BYTE      T4T3M
      000000A0H.2 SFRSYM    DATA     BIT       P_24L01_MISO
      000000A0H.3 SFRSYM    DATA     BIT       P_24L01_MOSI
      000000BEH   SFRSYM    DATA     BYTE      ADC_RESL
      00000082H   SFRSYM    DATA     BYTE      DPL
      000000A0H.1 SFRSYM    DATA     BIT       SCK
      000000CDH   SFRSYM    DATA     BYTE      SPSTAT
      0000009BH   SFRSYM    DATA     BYTE      S2BUF
      00000097H   SFRSYM    DATA     BYTE      PCON2
      000000C0H.4 SFRSYM    DATA     BIT       CSN
      000000ADH   SFRSYM    DATA     BYTE      S3BUF
      00000085H   SFRSYM    DATA     BYTE      S4BUF
      00000098H.4 SFRSYM    DATA     BIT       REN
      0000009AH   SFRSYM    DATA     BYTE      S2CON
      000000ACH   SFRSYM    DATA     BYTE      S3CON
      00000084H   SFRSYM    DATA     BYTE      S4CON
      000000B0H.2 SFRSYM    DATA     BIT       IRQ
      000000B9H   SFRSYM    DATA     BYTE      SADEN
      000000A9H   SFRSYM    DATA     BYTE      SADDR
      000000F0H   SFRSYM    DATA     BIT       B0
      000000F0H.1 SFRSYM    DATA     BIT       B1
      000000C6H   SFRSYM    DATA     BYTE      IAP_TRIG
      000000A2H   SFRSYM    DATA     BYTE      AUXR1
      000000F0H.2 SFRSYM    DATA     BIT       B2
      000000F0H.3 SFRSYM    DATA     BIT       B3
      000000F0H.4 SFRSYM    DATA     BIT       B4
      000000D0H.5 SFRSYM    DATA     BIT       F0
      000000F0H.5 SFRSYM    DATA     BIT       B5
      0000008FH   SFRSYM    DATA     BYTE      INT_CLKO
      000000F0H.6 SFRSYM    DATA     BIT       B6
      000000E0H   SFRSYM    DATA     BIT       ACC0
      000000F0H.7 SFRSYM    DATA     BIT       B7
      000000E0H.1 SFRSYM    DATA     BIT       ACC1
      000000E0H.2 SFRSYM    DATA     BIT       ACC2
      000000E0H.3 SFRSYM    DATA     BIT       ACC3
      000000D0H   SFRSYM    DATA     BYTE      PSW
      000000E0H.4 SFRSYM    DATA     BIT       ACC4
      000000E0H.5 SFRSYM    DATA     BIT       ACC5
      000000D8H   SFRSYM    DATA     BIT       CCF0
      000000E0H.6 SFRSYM    DATA     BIT       ACC6
      000000D8H.1 SFRSYM    DATA     BIT       CCF1
      000000CFH   SFRSYM    DATA     BYTE      SPDAT
      00000094H   SFRSYM    DATA     BYTE      P0M0

      01002BC3H   BLOCK     CODE     ---       LVL=0
      01002BC3H   LINE      CODE     ---       #61
      01002BC3H   LINE      CODE     ---       #62
      01002BC3H   LINE      CODE     ---       #63
      01002BC5H   LINE      CODE     ---       #64
      01002BC7H   LINE      CODE     ---       #65
      01002BC9H   LINE      CODE     ---       #66
      01002BDAH   LINE      CODE     ---       #67
      01002BEBH   LINE      CODE     ---       #68
      01002BF2H   LINE      CODE     ---       #69
      01002BF9H   LINE      CODE     ---       #70
      01002C00H   LINE      CODE     ---       #71
      01002C07H   LINE      CODE     ---       #72
      ---         BLOCKEND  ---      ---       LVL=0

      01002AB6H   BLOCK     CODE     ---       LVL=0
LX51 LINKER/LOCATER V4.66.1.0                                                         09/21/2015  00:52:51  PAGE 59


      ---         BLOCKEND  ---      ---       LVL=0

      01002AC0H   BLOCK     CODE     ---       LVL=0
      00000007H   SYMBOL    DATA     BYTE      dat
      01002AC0H   LINE      CODE     ---       #78
      01002AC0H   LINE      CODE     ---       #79
      01002AC0H   LINE      CODE     ---       #80
      01002AC2H   LINE      CODE     ---       #81
      01002ACEH   LINE      CODE     ---       #82
      01002ADAH   LINE      CODE     ---       #83
      01002AE6H   LINE      CODE     ---       #84
      01002AF2H   LINE      CODE     ---       #85
      01002AFEH   LINE      CODE     ---       #86
      01002B0AH   LINE      CODE     ---       #87
      01002B16H   LINE      CODE     ---       #88
      01002B22H   LINE      CODE     ---       #89
      01002B24H   LINE      CODE     ---       #90
      01002B26H   LINE      CODE     ---       #91
      ---         BLOCKEND  ---      ---       LVL=0

      01002F67H   BLOCK     CODE     ---       LVL=0
      02000172H   SYMBOL    XDATA    BYTE      reg
      01002F6CH   BLOCK     CODE     NEAR LAB  LVL=1
      02000173H   SYMBOL    XDATA    BYTE      reg_val
      ---         BLOCKEND  ---      ---       LVL=1
      01002F67H   LINE      CODE     ---       #102
      01002F6CH   LINE      CODE     ---       #103
      01002F6CH   LINE      CODE     ---       #106
      01002F6EH   LINE      CODE     ---       #107
      01002F73H   LINE      CODE     ---       #108
      01002F7BH   LINE      CODE     ---       #109
      01002F80H   LINE      CODE     ---       #110
      01002F8AH   LINE      CODE     ---       #111
      01002F8FH   LINE      CODE     ---       #112
      01002F91H   LINE      CODE     ---       #114
      01002F96H   LINE      CODE     ---       #115
      ---         BLOCKEND  ---      ---       LVL=0

      0100305BH   BLOCK     CODE     ---       LVL=0
      00000007H   SYMBOL    DATA     BYTE      reg
      00000005H   SYMBOL    DATA     BYTE      value
      0100305BH   BLOCK     CODE     NEAR LAB  LVL=1
      00000006H   SYMBOL    DATA     BYTE      status
      ---         BLOCKEND  ---      ---       LVL=1
      0100305BH   LINE      CODE     ---       #121
      0100305BH   LINE      CODE     ---       #122
      0100305BH   LINE      CODE     ---       #125
      0100305DH   LINE      CODE     ---       #126
      01003062H   LINE      CODE     ---       #127
      01003067H   LINE      CODE     ---       #128
      01003069H   LINE      CODE     ---       #130
      0100306BH   LINE      CODE     ---       #131
      ---         BLOCKEND  ---      ---       LVL=0

      01002E9BH   BLOCK     CODE     ---       LVL=0
      00000007H   SYMBOL    DATA     BYTE      reg
      02000173H   SYMBOL    XDATA    ---       pBuf
      02000176H   SYMBOL    XDATA    BYTE      uchars
      01002E9EH   BLOCK     CODE     NEAR LAB  LVL=1
      00000006H   SYMBOL    DATA     BYTE      status
      00000005H   SYMBOL    DATA     BYTE      uchar_ctr
      ---         BLOCKEND  ---      ---       LVL=1
      01002E9BH   LINE      CODE     ---       #136
      01002E9EH   LINE      CODE     ---       #137
      01002E9EH   LINE      CODE     ---       #140
LX51 LINKER/LOCATER V4.66.1.0                                                         09/21/2015  00:52:51  PAGE 60


      01002E9EH   LINE      CODE     ---       #141
      01002EA3H   LINE      CODE     ---       #143
      01002EAFH   LINE      CODE     ---       #144
      01002ECBH   LINE      CODE     ---       #146
      01002ECDH   LINE      CODE     ---       #148
      01002ECFH   LINE      CODE     ---       #149
      ---         BLOCKEND  ---      ---       LVL=0

      01002F03H   BLOCK     CODE     ---       LVL=0
      00000007H   SYMBOL    DATA     BYTE      reg
      0200016FH   SYMBOL    XDATA    ---       pBuf
      02000172H   SYMBOL    XDATA    BYTE      uchars
      01002F06H   BLOCK     CODE     NEAR LAB  LVL=1
      00000006H   SYMBOL    DATA     BYTE      status
      00000005H   SYMBOL    DATA     BYTE      uchar_ctr
      ---         BLOCKEND  ---      ---       LVL=1
      01002F03H   LINE      CODE     ---       #156
      01002F06H   LINE      CODE     ---       #157
      01002F06H   LINE      CODE     ---       #160
      01002F06H   LINE      CODE     ---       #161
      01002F0BH   LINE      CODE     ---       #162
      01002F17H   LINE      CODE     ---       #163
      01002F31H   LINE      CODE     ---       #164
      01002F33H   LINE      CODE     ---       #165
      01002F35H   LINE      CODE     ---       #166
      ---         BLOCKEND  ---      ---       LVL=0

      01003095H   BLOCK     CODE     ---       LVL=0
      01003095H   LINE      CODE     ---       #171
      01003095H   LINE      CODE     ---       #172
      01003095H   LINE      CODE     ---       #173
      01003097H   LINE      CODE     ---       #174
      0100309EH   LINE      CODE     ---       #175
      010030A0H   LINE      CODE     ---       #176
      ---         BLOCKEND  ---      ---       LVL=0

      01002B77H   BLOCK     CODE     ---       LVL=0
      0200016EH   SYMBOL    XDATA    ---       rx_buf
      01002B82H   BLOCK     CODE     NEAR LAB  LVL=1
      02000171H   SYMBOL    XDATA    BYTE      revale
      ---         BLOCKEND  ---      ---       LVL=1
      01002B77H   LINE      CODE     ---       #182
      01002B82H   LINE      CODE     ---       #183
      01002B82H   LINE      CODE     ---       #184
      01002B85H   LINE      CODE     ---       #186
      01002B8CH   LINE      CODE     ---       #187
      01002B8EH   LINE      CODE     ---       #188
      01002B91H   LINE      CODE     ---       #189
      01002B91H   LINE      CODE     ---       #191
      01002BA7H   LINE      CODE     ---       #192
      01002BADH   LINE      CODE     ---       #193
      01002BADH   LINE      CODE     ---       #194
      01002BB4H   LINE      CODE     ---       #195
      01002BBBH   LINE      CODE     ---       #196
      01002BBDH   LINE      CODE     ---       #197
      01002BC2H   LINE      CODE     ---       #198
      ---         BLOCKEND  ---      ---       LVL=0

      01002F97H   BLOCK     CODE     ---       LVL=0
      00000001H   SYMBOL    DATA     ---       tx_buf
      01002F97H   LINE      CODE     ---       #206
      01002F97H   LINE      CODE     ---       #207
      01002F97H   LINE      CODE     ---       #209
      01002F9EH   LINE      CODE     ---       #210
      01002FA0H   LINE      CODE     ---       #212
LX51 LINKER/LOCATER V4.66.1.0                                                         09/21/2015  00:52:51  PAGE 61


      01002FABH   LINE      CODE     ---       #213
      01002FB2H   LINE      CODE     ---       #214
      01002FB9H   LINE      CODE     ---       #215
      01002FBBH   LINE      CODE     ---       #216
      ---         BLOCKEND  ---      ---       LVL=0

      ---         MODULE    ---      ---       SPI
      01003088H   PUBLIC    CODE     ---       _SPItransfer
      0100306CH   PUBLIC    CODE     ---       _SPIsetDataMode
      010030A1H   PUBLIC    CODE     ---       _SPIsetClockDivider
      010030ADH   PUBLIC    CODE     ---       _SPIsetBitOrder
      010030B8H   PUBLIC    CODE     ---       SPIbegin
      01000003H   PUBLIC    CODE     ---       _SPIsetGroup
      000000D8H.2 SFRSYM    DATA     BIT       CCF2
      00000092H   SFRSYM    DATA     BYTE      P1M0
      00000093H   SFRSYM    DATA     BYTE      P0M1
      00000096H   SFRSYM    DATA     BYTE      P2M0
      00000091H   SFRSYM    DATA     BYTE      P1M1
      00000080H   SFRSYM    DATA     BYTE      P0
      000000B2H   SFRSYM    DATA     BYTE      P3M0
      00000095H   SFRSYM    DATA     BYTE      P2M1
      00000090H   SFRSYM    DATA     BYTE      P1
      000000B4H   SFRSYM    DATA     BYTE      P4M0
      000000B1H   SFRSYM    DATA     BYTE      P3M1
      000000A0H   SFRSYM    DATA     BYTE      P2
      000000ABH   SFRSYM    DATA     BYTE      WKTCH
      000000CAH   SFRSYM    DATA     BYTE      P5M0
      000000B3H   SFRSYM    DATA     BYTE      P4M1
      000000B0H   SFRSYM    DATA     BYTE      P3
      000000CCH   SFRSYM    DATA     BYTE      P6M0
      000000C9H   SFRSYM    DATA     BYTE      P5M1
      000000C0H   SFRSYM    DATA     BYTE      P4
      000000D0H.6 SFRSYM    DATA     BIT       AC
      000000F6H   SFRSYM    DATA     BYTE      PWMIF
      000000E2H   SFRSYM    DATA     BYTE      P7M0
      000000CBH   SFRSYM    DATA     BYTE      P6M1
      000000C8H   SFRSYM    DATA     BYTE      P5
      000000A8H.7 SFRSYM    DATA     BIT       EA
      000000E1H   SFRSYM    DATA     BYTE      P7M1
      000000E8H   SFRSYM    DATA     BYTE      P6
      000000AAH   SFRSYM    DATA     BYTE      WKTCL
      000000F8H   SFRSYM    DATA     BYTE      P7
      000000CEH   SFRSYM    DATA     BYTE      SPCTL
      000000D8H.7 SFRSYM    DATA     BIT       CF
      000000F5H   SFRSYM    DATA     BYTE      PWMCR
      000000F9H   SFRSYM    DATA     BYTE      CH
      000000A2H   SFRSYM    DATA     BYTE      P_SW1
      000000BAH   SFRSYM    DATA     BYTE      P_SW2
      000000A8H.5 SFRSYM    DATA     BIT       EADC
      000000A8H   SFRSYM    DATA     BYTE      IE
      000000E9H   SFRSYM    DATA     BYTE      CL
      000000C5H   SFRSYM    DATA     BYTE      IAP_CMD
      000000FAH   SFRSYM    DATA     BYTE      CCAP0H
      000000FBH   SFRSYM    DATA     BYTE      CCAP1H
      000000FCH   SFRSYM    DATA     BYTE      CCAP2H
      000000BDH   SFRSYM    DATA     BYTE      ADC_RES
      000000EAH   SFRSYM    DATA     BYTE      CCAP0L
      000000D8H.6 SFRSYM    DATA     BIT       CR
      000000F7H   SFRSYM    DATA     BYTE      PWMFDCR
      000000EBH   SFRSYM    DATA     BYTE      CCAP1L
      000000DAH   SFRSYM    DATA     BYTE      CCAPM0
      000000ECH   SFRSYM    DATA     BYTE      CCAP2L
      000000DBH   SFRSYM    DATA     BYTE      CCAPM1
      000000DCH   SFRSYM    DATA     BYTE      CCAPM2
      000000A8H.4 SFRSYM    DATA     BIT       ES
LX51 LINKER/LOCATER V4.66.1.0                                                         09/21/2015  00:52:51  PAGE 62


      000000B8H.5 SFRSYM    DATA     BIT       PADC
      000000B8H   SFRSYM    DATA     BYTE      IP
      00000098H   SFRSYM    DATA     BIT       RI
      000000D0H.7 SFRSYM    DATA     BIT       CY
      00000098H.1 SFRSYM    DATA     BIT       TI
      00000097H   SFRSYM    DATA     BYTE      CLK_DIV
      000000C3H   SFRSYM    DATA     BYTE      IAP_ADDRH
      000000B8H.4 SFRSYM    DATA     BIT       PS
      00000081H   SFRSYM    DATA     BYTE      SP
      000000D9H   SFRSYM    DATA     BYTE      CMOD
      000000D8H   SFRSYM    DATA     BYTE      CCON
      000000C4H   SFRSYM    DATA     BYTE      IAP_ADDRL
      000000B8H.7 SFRSYM    DATA     BIT       PPCA
      000000D0H.2 SFRSYM    DATA     BIT       OV
      000000E6H   SFRSYM    DATA     BYTE      CMPCR1
      000000E7H   SFRSYM    DATA     BYTE      CMPCR2
      000000A8H.6 SFRSYM    DATA     BIT       ELVD
      00000080H   SFRSYM    DATA     BIT       P00
      000000BCH   SFRSYM    DATA     BYTE      ADC_CONTR
      00000099H   SFRSYM    DATA     BYTE      SBUF
      00000087H   SFRSYM    DATA     BYTE      PCON
      00000090H   SFRSYM    DATA     BIT       P10
      00000080H.1 SFRSYM    DATA     BIT       P01
      000000A0H   SFRSYM    DATA     BIT       P20
      00000090H.1 SFRSYM    DATA     BIT       P11
      00000080H.2 SFRSYM    DATA     BIT       P02
      000000B0H   SFRSYM    DATA     BIT       P30
      000000A0H.1 SFRSYM    DATA     BIT       P21
      00000090H.2 SFRSYM    DATA     BIT       P12
      00000080H.3 SFRSYM    DATA     BIT       P03
      00000098H   SFRSYM    DATA     BYTE      SCON
      000000C0H   SFRSYM    DATA     BIT       P40
      000000B0H.1 SFRSYM    DATA     BIT       P31
      000000A0H.2 SFRSYM    DATA     BIT       P22
      00000090H.3 SFRSYM    DATA     BIT       P13
      00000080H.4 SFRSYM    DATA     BIT       P04
      00000089H   SFRSYM    DATA     BYTE      TMOD
      00000088H   SFRSYM    DATA     BYTE      TCON
      000000C8H   SFRSYM    DATA     BIT       P50
      000000C0H.1 SFRSYM    DATA     BIT       P41
      000000B0H.2 SFRSYM    DATA     BIT       P32
      000000A0H.3 SFRSYM    DATA     BIT       P23
      00000090H.4 SFRSYM    DATA     BIT       P14
      00000080H.5 SFRSYM    DATA     BIT       P05
      000000E8H   SFRSYM    DATA     BIT       P60
      000000C8H.1 SFRSYM    DATA     BIT       P51
      000000C0H.2 SFRSYM    DATA     BIT       P42
      000000B0H.3 SFRSYM    DATA     BIT       P33
      000000A0H.4 SFRSYM    DATA     BIT       P24
      00000090H.5 SFRSYM    DATA     BIT       P15
      00000080H.6 SFRSYM    DATA     BIT       P06
      000000B8H.6 SFRSYM    DATA     BIT       PLVD
      000000F8H   SFRSYM    DATA     BIT       P70
      000000E8H.1 SFRSYM    DATA     BIT       P61
      000000C8H.2 SFRSYM    DATA     BIT       P52
      000000C0H.3 SFRSYM    DATA     BIT       P43
      000000B0H.4 SFRSYM    DATA     BIT       P34
      000000A0H.5 SFRSYM    DATA     BIT       P25
      00000090H.6 SFRSYM    DATA     BIT       P16
      00000080H.7 SFRSYM    DATA     BIT       P07
      000000F8H.1 SFRSYM    DATA     BIT       P71
      000000E8H.2 SFRSYM    DATA     BIT       P62
      000000C8H.3 SFRSYM    DATA     BIT       P53
      000000C0H.4 SFRSYM    DATA     BIT       P44
      000000B0H.5 SFRSYM    DATA     BIT       P35
LX51 LINKER/LOCATER V4.66.1.0                                                         09/21/2015  00:52:51  PAGE 63


      000000A0H.6 SFRSYM    DATA     BIT       P26
      00000090H.7 SFRSYM    DATA     BIT       P17
      000000F8H.2 SFRSYM    DATA     BIT       P72
      000000E8H.3 SFRSYM    DATA     BIT       P63
      000000C8H.4 SFRSYM    DATA     BIT       P54
      000000C0H.5 SFRSYM    DATA     BIT       P45
      000000B0H.6 SFRSYM    DATA     BIT       P36
      000000A0H.7 SFRSYM    DATA     BIT       P27
      000000F8H.3 SFRSYM    DATA     BIT       P73
      000000E8H.4 SFRSYM    DATA     BIT       P64
      000000C8H.5 SFRSYM    DATA     BIT       P55
      000000C0H.6 SFRSYM    DATA     BIT       P46
      000000B0H.7 SFRSYM    DATA     BIT       P37
      000000F8H.4 SFRSYM    DATA     BIT       P74
      000000E8H.5 SFRSYM    DATA     BIT       P65
      000000C8H.6 SFRSYM    DATA     BIT       P56
      000000C0H.7 SFRSYM    DATA     BIT       P47
      000000F8H.5 SFRSYM    DATA     BIT       P75
      000000E8H.6 SFRSYM    DATA     BIT       P66
      000000C8H.7 SFRSYM    DATA     BIT       P57
      000000F8H.6 SFRSYM    DATA     BIT       P76
      000000E8H.7 SFRSYM    DATA     BIT       P67
      00000088H.1 SFRSYM    DATA     BIT       IE0
      000000A1H   SFRSYM    DATA     BYTE      BUS_SPEED
      000000F8H.7 SFRSYM    DATA     BIT       P77
      00000088H.3 SFRSYM    DATA     BIT       IE1
      000000AFH   SFRSYM    DATA     BYTE      IE2
      0000008EH   SFRSYM    DATA     BYTE      AUXR
      000000F0H   SFRSYM    DATA     BYTE      B
      000000C7H   SFRSYM    DATA     BYTE      IAP_CONTR
      000000F1H   SFRSYM    DATA     BYTE      PWMCFG
      000000E0H   SFRSYM    DATA     BYTE      ACC
      000000A8H.1 SFRSYM    DATA     BIT       ET0
      00000088H.5 SFRSYM    DATA     BIT       TF0
      000000A8H.3 SFRSYM    DATA     BIT       ET1
      00000088H.7 SFRSYM    DATA     BIT       TF1
      000000B5H   SFRSYM    DATA     BYTE      IP2
      00000098H.2 SFRSYM    DATA     BIT       RB8
      0000008CH   SFRSYM    DATA     BYTE      TH0
      0000008DH   SFRSYM    DATA     BYTE      TH1
      00000088H   SFRSYM    DATA     BIT       IT0
      000000A8H   SFRSYM    DATA     BIT       EX0
      00000098H.3 SFRSYM    DATA     BIT       TB8
      000000D6H   SFRSYM    DATA     BYTE      T2H
      00000088H.2 SFRSYM    DATA     BIT       IT1
      000000A8H.2 SFRSYM    DATA     BIT       EX1
      000000D4H   SFRSYM    DATA     BYTE      T3H
      000000D0H   SFRSYM    DATA     BIT       P
      00000098H.7 SFRSYM    DATA     BIT       SM0
      000000D2H   SFRSYM    DATA     BYTE      T4H
      0000008AH   SFRSYM    DATA     BYTE      TL0
      00000098H.6 SFRSYM    DATA     BIT       SM1
      0000008BH   SFRSYM    DATA     BYTE      TL1
      00000098H.5 SFRSYM    DATA     BIT       SM2
      000000D7H   SFRSYM    DATA     BYTE      T2L
      000000D5H   SFRSYM    DATA     BYTE      T3L
      000000D3H   SFRSYM    DATA     BYTE      T4L
      000000B8H.1 SFRSYM    DATA     BIT       PT0
      000000B8H.3 SFRSYM    DATA     BIT       PT1
      000000D0H.3 SFRSYM    DATA     BIT       RS0
      000000C2H   SFRSYM    DATA     BYTE      IAP_DATA
      00000088H.4 SFRSYM    DATA     BIT       TR0
      000000D0H.4 SFRSYM    DATA     BIT       RS1
      00000088H.6 SFRSYM    DATA     BIT       TR1
      000000C1H   SFRSYM    DATA     BYTE      WDT_CONTR
LX51 LINKER/LOCATER V4.66.1.0                                                         09/21/2015  00:52:51  PAGE 64


      000000B8H   SFRSYM    DATA     BIT       PX0
      000000B8H.2 SFRSYM    DATA     BIT       PX1
      000000F2H   SFRSYM    DATA     BYTE      PCA_PWM0
      000000F3H   SFRSYM    DATA     BYTE      PCA_PWM1
      000000F4H   SFRSYM    DATA     BYTE      PCA_PWM2
      0000009DH   SFRSYM    DATA     BYTE      P1ASF
      00000083H   SFRSYM    DATA     BYTE      DPH
      000000D1H   SFRSYM    DATA     BYTE      T3T4M
      000000D1H   SFRSYM    DATA     BYTE      T4T3M
      000000BEH   SFRSYM    DATA     BYTE      ADC_RESL
      00000082H   SFRSYM    DATA     BYTE      DPL
      000000CDH   SFRSYM    DATA     BYTE      SPSTAT
      0000009BH   SFRSYM    DATA     BYTE      S2BUF
      00000097H   SFRSYM    DATA     BYTE      PCON2
      000000ADH   SFRSYM    DATA     BYTE      S3BUF
      00000085H   SFRSYM    DATA     BYTE      S4BUF
      00000098H.4 SFRSYM    DATA     BIT       REN
      0000009AH   SFRSYM    DATA     BYTE      S2CON
      000000ACH   SFRSYM    DATA     BYTE      S3CON
      00000084H   SFRSYM    DATA     BYTE      S4CON
      000000B9H   SFRSYM    DATA     BYTE      SADEN
      000000A9H   SFRSYM    DATA     BYTE      SADDR
      000000C6H   SFRSYM    DATA     BYTE      IAP_TRIG
      000000A2H   SFRSYM    DATA     BYTE      AUXR1
      000000D0H.5 SFRSYM    DATA     BIT       F0
      0000008FH   SFRSYM    DATA     BYTE      INT_CLKO
      000000D0H   SFRSYM    DATA     BYTE      PSW
      000000D8H   SFRSYM    DATA     BIT       CCF0
      000000D8H.1 SFRSYM    DATA     BIT       CCF1
      000000CFH   SFRSYM    DATA     BYTE      SPDAT
      00000094H   SFRSYM    DATA     BYTE      P0M0

      01000003H   BLOCK     CODE     ---       LVL=0
      00000007H   SYMBOL    DATA     BYTE      Group
      01000003H   LINE      CODE     ---       #14
      01000003H   LINE      CODE     ---       #15
      01000003H   LINE      CODE     ---       #16
      0100000AH   LINE      CODE     ---       #17
      ---         BLOCKEND  ---      ---       LVL=0

      010030B8H   BLOCK     CODE     ---       LVL=0
      010030B8H   LINE      CODE     ---       #18
      010030B8H   LINE      CODE     ---       #19
      010030B8H   LINE      CODE     ---       #20
      010030BBH   LINE      CODE     ---       #21
      010030BEH   LINE      CODE     ---       #22
      010030C1H   LINE      CODE     ---       #24
      ---         BLOCKEND  ---      ---       LVL=0

      010030ADH   BLOCK     CODE     ---       LVL=0
      00000007H   SYMBOL    DATA     BYTE      bitOrder
      010030ADH   LINE      CODE     ---       #25
      010030ADH   LINE      CODE     ---       #26
      010030ADH   LINE      CODE     ---       #27
      010030B4H   LINE      CODE     ---       #28
      010030B7H   LINE      CODE     ---       #29
      ---         BLOCKEND  ---      ---       LVL=0

      010030A1H   BLOCK     CODE     ---       LVL=0
      00000007H   SYMBOL    DATA     BYTE      rate
      010030A1H   LINE      CODE     ---       #30
      010030A1H   LINE      CODE     ---       #31
      010030A1H   LINE      CODE     ---       #32
      010030ACH   LINE      CODE     ---       #34
      ---         BLOCKEND  ---      ---       LVL=0
LX51 LINKER/LOCATER V4.66.1.0                                                         09/21/2015  00:52:51  PAGE 65



      0100306CH   BLOCK     CODE     ---       LVL=0
      00000007H   SYMBOL    DATA     BYTE      mode
      0100306CH   LINE      CODE     ---       #39
      0100306CH   LINE      CODE     ---       #40
      0100306CH   LINE      CODE     ---       #41
      01003079H   LINE      CODE     ---       #42
      ---         BLOCKEND  ---      ---       LVL=0

      01003088H   BLOCK     CODE     ---       LVL=0
      00000007H   SYMBOL    DATA     BYTE      _data
      01003088H   LINE      CODE     ---       #43
      01003088H   LINE      CODE     ---       #44
      01003088H   LINE      CODE     ---       #45
      0100308AH   LINE      CODE     ---       #46
      0100308FH   LINE      CODE     ---       #47
      01003092H   LINE      CODE     ---       #48
      01003094H   LINE      CODE     ---       #49
      ---         BLOCKEND  ---      ---       LVL=0

      ---         MODULE    ---      ---       12864
      02000177H   PUBLIC    XDATA    DWORD     fontaddr
      010030C5H   PUBLIC    CONST    ---       ascii_table_8x16
      0100216AH   PUBLIC    CODE     ---       _display_string_8x16
      01002D2BH   PUBLIC    CODE     ---       clear_screen
      010025FFH   PUBLIC    CODE     ---       initial_lcd
      01002DD1H   PUBLIC    CODE     ---       _transfer_data
      01003040H   PUBLIC    CODE     ---       _transfer_command
      01002D74H   PUBLIC    CODE     ---       _lcd_address
      000000D8H.2 SFRSYM    DATA     BIT       CCF2
      00000092H   SFRSYM    DATA     BYTE      P1M0
      00000093H   SFRSYM    DATA     BYTE      P0M1
      00000096H   SFRSYM    DATA     BYTE      P2M0
      00000091H   SFRSYM    DATA     BYTE      P1M1
      00000080H   SFRSYM    DATA     BYTE      P0
      000000B2H   SFRSYM    DATA     BYTE      P3M0
      00000095H   SFRSYM    DATA     BYTE      P2M1
      00000090H   SFRSYM    DATA     BYTE      P1
      000000B4H   SFRSYM    DATA     BYTE      P4M0
      000000B1H   SFRSYM    DATA     BYTE      P3M1
      000000A0H   SFRSYM    DATA     BYTE      P2
      000000ABH   SFRSYM    DATA     BYTE      WKTCH
      000000CAH   SFRSYM    DATA     BYTE      P5M0
      000000B3H   SFRSYM    DATA     BYTE      P4M1
      000000B0H   SFRSYM    DATA     BYTE      P3
      000000CCH   SFRSYM    DATA     BYTE      P6M0
      000000C9H   SFRSYM    DATA     BYTE      P5M1
      000000C0H   SFRSYM    DATA     BYTE      P4
      000000D0H.6 SFRSYM    DATA     BIT       AC
      000000F6H   SFRSYM    DATA     BYTE      PWMIF
      000000E2H   SFRSYM    DATA     BYTE      P7M0
      000000CBH   SFRSYM    DATA     BYTE      P6M1
      000000C8H   SFRSYM    DATA     BYTE      P5
      000000A8H.7 SFRSYM    DATA     BIT       EA
      000000E1H   SFRSYM    DATA     BYTE      P7M1
      000000E8H   SFRSYM    DATA     BYTE      P6
      000000AAH   SFRSYM    DATA     BYTE      WKTCL
      000000F8H   SFRSYM    DATA     BYTE      P7
      000000CEH   SFRSYM    DATA     BYTE      SPCTL
      00000090H.3 SFRSYM    DATA     BIT       Rom_OUT
      000000D8H.7 SFRSYM    DATA     BIT       CF
      000000F5H   SFRSYM    DATA     BYTE      PWMCR
      000000F9H   SFRSYM    DATA     BYTE      CH
      000000A2H   SFRSYM    DATA     BYTE      P_SW1
      000000BAH   SFRSYM    DATA     BYTE      P_SW2
LX51 LINKER/LOCATER V4.66.1.0                                                         09/21/2015  00:52:51  PAGE 66


      000000A8H.5 SFRSYM    DATA     BIT       EADC
      000000A8H   SFRSYM    DATA     BYTE      IE
      000000E9H   SFRSYM    DATA     BYTE      CL
      000000C5H   SFRSYM    DATA     BYTE      IAP_CMD
      000000FAH   SFRSYM    DATA     BYTE      CCAP0H
      000000FBH   SFRSYM    DATA     BYTE      CCAP1H
      000000FCH   SFRSYM    DATA     BYTE      CCAP2H
      000000BDH   SFRSYM    DATA     BYTE      ADC_RES
      000000EAH   SFRSYM    DATA     BYTE      CCAP0L
      000000D8H.6 SFRSYM    DATA     BIT       CR
      000000F7H   SFRSYM    DATA     BYTE      PWMFDCR
      000000EBH   SFRSYM    DATA     BYTE      CCAP1L
      000000DAH   SFRSYM    DATA     BYTE      CCAPM0
      000000ECH   SFRSYM    DATA     BYTE      CCAP2L
      000000DBH   SFRSYM    DATA     BYTE      CCAPM1
      000000DCH   SFRSYM    DATA     BYTE      CCAPM2
      000000A8H.4 SFRSYM    DATA     BIT       ES
      000000B8H.5 SFRSYM    DATA     BIT       PADC
      000000B8H   SFRSYM    DATA     BYTE      IP
      00000098H   SFRSYM    DATA     BIT       RI
      000000D0H.7 SFRSYM    DATA     BIT       CY
      00000098H.1 SFRSYM    DATA     BIT       TI
      00000097H   SFRSYM    DATA     BYTE      CLK_DIV
      000000C3H   SFRSYM    DATA     BYTE      IAP_ADDRH
      000000B8H.4 SFRSYM    DATA     BIT       PS
      00000081H   SFRSYM    DATA     BYTE      SP
      000000D9H   SFRSYM    DATA     BYTE      CMOD
      000000D8H   SFRSYM    DATA     BYTE      CCON
      000000C4H   SFRSYM    DATA     BYTE      IAP_ADDRL
      000000B8H.7 SFRSYM    DATA     BIT       PPCA
      000000D0H.2 SFRSYM    DATA     BIT       OV
      00000090H.5 SFRSYM    DATA     BIT       Rom_CS
      00000090H.2 SFRSYM    DATA     BIT       Rom_IN
      000000E6H   SFRSYM    DATA     BYTE      CMPCR1
      000000E7H   SFRSYM    DATA     BYTE      CMPCR2
      000000A8H.6 SFRSYM    DATA     BIT       ELVD
      00000080H   SFRSYM    DATA     BIT       P00
      000000BCH   SFRSYM    DATA     BYTE      ADC_CONTR
      00000099H   SFRSYM    DATA     BYTE      SBUF
      00000087H   SFRSYM    DATA     BYTE      PCON
      00000090H   SFRSYM    DATA     BIT       P10
      00000080H.1 SFRSYM    DATA     BIT       P01
      000000A0H   SFRSYM    DATA     BIT       P20
      00000090H.1 SFRSYM    DATA     BIT       P11
      00000080H.2 SFRSYM    DATA     BIT       P02
      000000B0H   SFRSYM    DATA     BIT       P30
      000000A0H.1 SFRSYM    DATA     BIT       P21
      00000090H.2 SFRSYM    DATA     BIT       P12
      00000080H.3 SFRSYM    DATA     BIT       P03
      00000098H   SFRSYM    DATA     BYTE      SCON
      000000C0H   SFRSYM    DATA     BIT       P40
      000000B0H.1 SFRSYM    DATA     BIT       P31
      000000A0H.2 SFRSYM    DATA     BIT       P22
      00000090H.3 SFRSYM    DATA     BIT       P13
      00000080H.4 SFRSYM    DATA     BIT       P04
      00000089H   SFRSYM    DATA     BYTE      TMOD
      00000088H   SFRSYM    DATA     BYTE      TCON
      000000C8H   SFRSYM    DATA     BIT       P50
      000000C0H.1 SFRSYM    DATA     BIT       P41
      000000B0H.2 SFRSYM    DATA     BIT       P32
      000000A0H.3 SFRSYM    DATA     BIT       P23
      00000090H.4 SFRSYM    DATA     BIT       P14
      00000080H.5 SFRSYM    DATA     BIT       P05
      000000E8H   SFRSYM    DATA     BIT       P60
      000000C8H.1 SFRSYM    DATA     BIT       P51
LX51 LINKER/LOCATER V4.66.1.0                                                         09/21/2015  00:52:51  PAGE 67


      000000C0H.2 SFRSYM    DATA     BIT       P42
      000000B0H.3 SFRSYM    DATA     BIT       P33
      000000A0H.4 SFRSYM    DATA     BIT       P24
      00000090H.5 SFRSYM    DATA     BIT       P15
      00000080H.6 SFRSYM    DATA     BIT       P06
      000000B8H.6 SFRSYM    DATA     BIT       PLVD
      000000F8H   SFRSYM    DATA     BIT       P70
      000000E8H.1 SFRSYM    DATA     BIT       P61
      000000C8H.2 SFRSYM    DATA     BIT       P52
      000000C0H.3 SFRSYM    DATA     BIT       P43
      000000B0H.4 SFRSYM    DATA     BIT       P34
      000000A0H.5 SFRSYM    DATA     BIT       P25
      00000090H.6 SFRSYM    DATA     BIT       P16
      00000080H.7 SFRSYM    DATA     BIT       P07
      000000F8H.1 SFRSYM    DATA     BIT       P71
      000000E8H.2 SFRSYM    DATA     BIT       P62
      000000C8H.3 SFRSYM    DATA     BIT       P53
      000000C0H.4 SFRSYM    DATA     BIT       P44
      000000B0H.5 SFRSYM    DATA     BIT       P35
      000000A0H.6 SFRSYM    DATA     BIT       P26
      00000090H.7 SFRSYM    DATA     BIT       P17
      000000F8H.2 SFRSYM    DATA     BIT       P72
      000000E8H.3 SFRSYM    DATA     BIT       P63
      000000C8H.4 SFRSYM    DATA     BIT       P54
      000000C0H.5 SFRSYM    DATA     BIT       P45
      000000B0H.6 SFRSYM    DATA     BIT       P36
      000000A0H.7 SFRSYM    DATA     BIT       P27
      000000F8H.3 SFRSYM    DATA     BIT       P73
      000000E8H.4 SFRSYM    DATA     BIT       P64
      000000C8H.5 SFRSYM    DATA     BIT       P55
      000000C0H.6 SFRSYM    DATA     BIT       P46
      000000B0H.7 SFRSYM    DATA     BIT       P37
      000000F8H.4 SFRSYM    DATA     BIT       P74
      000000E8H.5 SFRSYM    DATA     BIT       P65
      000000C8H.6 SFRSYM    DATA     BIT       P56
      000000C0H.7 SFRSYM    DATA     BIT       P47
      000000F8H.5 SFRSYM    DATA     BIT       P75
      000000E8H.6 SFRSYM    DATA     BIT       P66
      000000C8H.7 SFRSYM    DATA     BIT       P57
      000000F8H.6 SFRSYM    DATA     BIT       P76
      000000E8H.7 SFRSYM    DATA     BIT       P67
      00000088H.1 SFRSYM    DATA     BIT       IE0
      000000A1H   SFRSYM    DATA     BYTE      BUS_SPEED
      000000F8H.7 SFRSYM    DATA     BIT       P77
      00000088H.3 SFRSYM    DATA     BIT       IE1
      000000AFH   SFRSYM    DATA     BYTE      IE2
      0000008EH   SFRSYM    DATA     BYTE      AUXR
      000000F0H   SFRSYM    DATA     BYTE      B
      000000C7H   SFRSYM    DATA     BYTE      IAP_CONTR
      000000F1H   SFRSYM    DATA     BYTE      PWMCFG
      000000E0H   SFRSYM    DATA     BYTE      ACC
      000000A8H.1 SFRSYM    DATA     BIT       ET0
      00000088H.5 SFRSYM    DATA     BIT       TF0
      000000A8H.3 SFRSYM    DATA     BIT       ET1
      00000088H.7 SFRSYM    DATA     BIT       TF1
      000000B5H   SFRSYM    DATA     BYTE      IP2
      00000098H.2 SFRSYM    DATA     BIT       RB8
      0000008CH   SFRSYM    DATA     BYTE      TH0
      0000008DH   SFRSYM    DATA     BYTE      TH1
      00000088H   SFRSYM    DATA     BIT       IT0
      000000A8H   SFRSYM    DATA     BIT       EX0
      00000098H.3 SFRSYM    DATA     BIT       TB8
      000000D6H   SFRSYM    DATA     BYTE      T2H
      00000088H.2 SFRSYM    DATA     BIT       IT1
      000000A8H.2 SFRSYM    DATA     BIT       EX1
LX51 LINKER/LOCATER V4.66.1.0                                                         09/21/2015  00:52:51  PAGE 68


      000000D4H   SFRSYM    DATA     BYTE      T3H
      000000D0H   SFRSYM    DATA     BIT       P
      00000098H.7 SFRSYM    DATA     BIT       SM0
      000000D2H   SFRSYM    DATA     BYTE      T4H
      0000008AH   SFRSYM    DATA     BYTE      TL0
      00000098H.6 SFRSYM    DATA     BIT       SM1
      0000008BH   SFRSYM    DATA     BYTE      TL1
      00000098H.5 SFRSYM    DATA     BIT       SM2
      000000D7H   SFRSYM    DATA     BYTE      T2L
      000000D5H   SFRSYM    DATA     BYTE      T3L
      000000D3H   SFRSYM    DATA     BYTE      T4L
      000000B8H.1 SFRSYM    DATA     BIT       PT0
      000000B8H.3 SFRSYM    DATA     BIT       PT1
      000000D0H.3 SFRSYM    DATA     BIT       RS0
      000000C2H   SFRSYM    DATA     BYTE      IAP_DATA
      00000088H.4 SFRSYM    DATA     BIT       TR0
      000000D0H.4 SFRSYM    DATA     BIT       RS1
      00000088H.6 SFRSYM    DATA     BIT       TR1
      000000C1H   SFRSYM    DATA     BYTE      WDT_CONTR
      000000B8H   SFRSYM    DATA     BIT       PX0
      000000B8H.2 SFRSYM    DATA     BIT       PX1
      000000F2H   SFRSYM    DATA     BYTE      PCA_PWM0
      000000F3H   SFRSYM    DATA     BYTE      PCA_PWM1
      000000F4H   SFRSYM    DATA     BYTE      PCA_PWM2
      0000009DH   SFRSYM    DATA     BYTE      P1ASF
      00000083H   SFRSYM    DATA     BYTE      DPH
      000000D1H   SFRSYM    DATA     BYTE      T3T4M
      000000D1H   SFRSYM    DATA     BYTE      T4T3M
      000000BEH   SFRSYM    DATA     BYTE      ADC_RESL
      00000082H   SFRSYM    DATA     BYTE      DPL
      000000CDH   SFRSYM    DATA     BYTE      SPSTAT
      0000009BH   SFRSYM    DATA     BYTE      S2BUF
      00000097H   SFRSYM    DATA     BYTE      PCON2
      000000ADH   SFRSYM    DATA     BYTE      S3BUF
      00000085H   SFRSYM    DATA     BYTE      S4BUF
      00000098H.4 SFRSYM    DATA     BIT       REN
      0000009AH   SFRSYM    DATA     BYTE      S2CON
      000000ACH   SFRSYM    DATA     BYTE      S3CON
      00000084H   SFRSYM    DATA     BYTE      S4CON
      000000B9H   SFRSYM    DATA     BYTE      SADEN
      000000A9H   SFRSYM    DATA     BYTE      SADDR
      00000090H.4 SFRSYM    DATA     BIT       Rom_SCK
      000000C6H   SFRSYM    DATA     BYTE      IAP_TRIG
      000000A2H   SFRSYM    DATA     BYTE      AUXR1
      000000D0H.5 SFRSYM    DATA     BIT       F0
      0000008FH   SFRSYM    DATA     BYTE      INT_CLKO
      000000D0H   SFRSYM    DATA     BYTE      PSW
      000000D8H   SFRSYM    DATA     BIT       CCF0
      000000D8H.1 SFRSYM    DATA     BIT       CCF1
      000000CFH   SFRSYM    DATA     BYTE      SPDAT
      00000094H   SFRSYM    DATA     BYTE      P0M0

      01002D6EH   BLOCK     CODE     ---       LVL=0
      ---         BLOCKEND  ---      ---       LVL=0

      01002D74H   BLOCK     CODE     ---       LVL=0
      0200014DH   SYMBOL    XDATA    BYTE      page
      0200014EH   SYMBOL    XDATA    BYTE      column
      01002D74H   LINE      CODE     ---       #313
      01002D7CH   LINE      CODE     ---       #314
      01002D7CH   LINE      CODE     ---       #315
      01002D83H   LINE      CODE     ---       #316
      01002D89H   LINE      CODE     ---       #317
      01002D8FH   LINE      CODE     ---       #318
      01002D96H   LINE      CODE     ---       #319
LX51 LINKER/LOCATER V4.66.1.0                                                         09/21/2015  00:52:51  PAGE 69


      01002DA3H   LINE      CODE     ---       #320
      ---         BLOCKEND  ---      ---       LVL=0

      01003040H   BLOCK     CODE     ---       LVL=0
      0200014FH   SYMBOL    XDATA    BYTE      data1
      01003040H   LINE      CODE     ---       #331
      01003045H   LINE      CODE     ---       #332
      01003045H   LINE      CODE     ---       #333
      0100304CH   LINE      CODE     ---       #334
      01003053H   LINE      CODE     ---       #335
      ---         BLOCKEND  ---      ---       LVL=0

      01002DADH   BLOCK     CODE     ---       LVL=0
      ---         BLOCKEND  ---      ---       LVL=0

      01002DD1H   BLOCK     CODE     ---       LVL=0
      0200014DH   SYMBOL    XDATA    BYTE      data1
      01002DD1H   LINE      CODE     ---       #346
      01002DD6H   LINE      CODE     ---       #347
      01002DD6H   LINE      CODE     ---       #348
      01002DDDH   LINE      CODE     ---       #349
      01002DE4H   LINE      CODE     ---       #350
      ---         BLOCKEND  ---      ---       LVL=0

      010025FFH   BLOCK     CODE     ---       LVL=0
      010025FFH   LINE      CODE     ---       #353
      010025FFH   LINE      CODE     ---       #354
      010025FFH   LINE      CODE     ---       #356
      01002606H   LINE      CODE     ---       #357
      0100260DH   LINE      CODE     ---       #358
      01002618H   LINE      CODE     ---       #359
      0100261FH   LINE      CODE     ---       #360
      0100262AH   LINE      CODE     ---       #361
      0100262FH   LINE      CODE     ---       #362
      0100263AH   LINE      CODE     ---       #363
      0100263FH   LINE      CODE     ---       #364
      0100264AH   LINE      CODE     ---       #365
      0100264FH   LINE      CODE     ---       #366
      0100265AH   LINE      CODE     ---       #367
      0100265FH   LINE      CODE     ---       #368
      0100266AH   LINE      CODE     ---       #369
      0100266FH   LINE      CODE     ---       #370
      01002674H   LINE      CODE     ---       #371
      01002679H   LINE      CODE     ---       #372
      0100267EH   LINE      CODE     ---       #373
      01002683H   LINE      CODE     ---       #374
      01002688H   LINE      CODE     ---       #375
      0100268DH   LINE      CODE     ---       #376
      01002692H   LINE      CODE     ---       #377
      ---         BLOCKEND  ---      ---       LVL=0

      01002D2BH   BLOCK     CODE     ---       LVL=0
      01002D2BH   BLOCK     CODE     NEAR LAB  LVL=1
      0200013EH   SYMBOL    XDATA    BYTE      i
      0200013FH   SYMBOL    XDATA    BYTE      j
      ---         BLOCKEND  ---      ---       LVL=1
      01002D2BH   LINE      CODE     ---       #380
      01002D2BH   LINE      CODE     ---       #381
      01002D2BH   LINE      CODE     ---       #383
      01002D32H   LINE      CODE     ---       #384
      01002D41H   LINE      CODE     ---       #385
      01002D41H   LINE      CODE     ---       #386
      01002D49H   LINE      CODE     ---       #388
      01002D4EH   LINE      CODE     ---       #389
      01002D4EH   LINE      CODE     ---       #390
LX51 LINKER/LOCATER V4.66.1.0                                                         09/21/2015  00:52:51  PAGE 70


      01002D53H   LINE      CODE     ---       #391
      01002D5FH   LINE      CODE     ---       #392
      01002D67H   LINE      CODE     ---       #393
      ---         BLOCKEND  ---      ---       LVL=0

      0100216AH   BLOCK     CODE     ---       LVL=0
      0200013EH   SYMBOL    XDATA    WORD      page
      02000140H   SYMBOL    XDATA    WORD      column
      02000142H   SYMBOL    XDATA    ---       text
      01002181H   BLOCK     CODE     NEAR LAB  LVL=1
      02000145H   SYMBOL    XDATA    WORD      i
      02000147H   SYMBOL    XDATA    WORD      j
      02000149H   SYMBOL    XDATA    WORD      k
      0200014BH   SYMBOL    XDATA    WORD      n
      ---         BLOCKEND  ---      ---       LVL=1
      0100216AH   LINE      CODE     ---       #450
      01002181H   LINE      CODE     ---       #451
      01002181H   LINE      CODE     ---       #452
      01002186H   LINE      CODE     ---       #453
      0100218CH   LINE      CODE     ---       #454
      010021ACH   LINE      CODE     ---       #455
      010021ACH   LINE      CODE     ---       #456
      010021BDH   LINE      CODE     ---       #457
      010021BDH   LINE      CODE     ---       #458
      010021CBH   LINE      CODE     ---       #459
      010021E2H   LINE      CODE     ---       #460
      010021E2H   LINE      CODE     ---       #461
      010021F0H   LINE      CODE     ---       #462
      01002207H   LINE      CODE     ---       #463
      01002207H   LINE      CODE     ---       #464
      01002224H   LINE      CODE     ---       #465
      01002234H   LINE      CODE     ---       #466
      01002244H   LINE      CODE     ---       #467
      01002252H   LINE      CODE     ---       #468
      01002260H   LINE      CODE     ---       #469
      01002263H   LINE      CODE     ---       #471
      01002274H   LINE      CODE     ---       #472
      01002277H   LINE      CODE     ---       #473
      ---         BLOCKEND  ---      ---       LVL=0
      00000006H   SYMBOL    DATA     BYTE      i
      00000007H   SYMBOL    DATA     BYTE      ret_data

      ---         MODULE    ---      ---       EINTERRUPT
      01002E62H   PUBLIC    CODE     ---       _Timer0_attachInterrupt
      01002C0EH   PUBLIC    CODE     ---       _setHighPolity
      000000D8H.2 SFRSYM    DATA     BIT       CCF2
      00000092H   SFRSYM    DATA     BYTE      P1M0
      00000093H   SFRSYM    DATA     BYTE      P0M1
      00000096H   SFRSYM    DATA     BYTE      P2M0
      00000091H   SFRSYM    DATA     BYTE      P1M1
      00000080H   SFRSYM    DATA     BYTE      P0
      000000B2H   SFRSYM    DATA     BYTE      P3M0
      00000095H   SFRSYM    DATA     BYTE      P2M1
      00000090H   SFRSYM    DATA     BYTE      P1
      000000B4H   SFRSYM    DATA     BYTE      P4M0
      000000B1H   SFRSYM    DATA     BYTE      P3M1
      000000A0H   SFRSYM    DATA     BYTE      P2
      000000ABH   SFRSYM    DATA     BYTE      WKTCH
      000000CAH   SFRSYM    DATA     BYTE      P5M0
      000000B3H   SFRSYM    DATA     BYTE      P4M1
      000000B0H   SFRSYM    DATA     BYTE      P3
      000000CCH   SFRSYM    DATA     BYTE      P6M0
      000000C9H   SFRSYM    DATA     BYTE      P5M1
      000000C0H   SFRSYM    DATA     BYTE      P4
      000000D0H.6 SFRSYM    DATA     BIT       AC
LX51 LINKER/LOCATER V4.66.1.0                                                         09/21/2015  00:52:51  PAGE 71


      000000F6H   SFRSYM    DATA     BYTE      PWMIF
      000000E2H   SFRSYM    DATA     BYTE      P7M0
      000000CBH   SFRSYM    DATA     BYTE      P6M1
      000000C8H   SFRSYM    DATA     BYTE      P5
      000000A8H.7 SFRSYM    DATA     BIT       EA
      000000E1H   SFRSYM    DATA     BYTE      P7M1
      000000E8H   SFRSYM    DATA     BYTE      P6
      000000AAH   SFRSYM    DATA     BYTE      WKTCL
      000000F8H   SFRSYM    DATA     BYTE      P7
      000000CEH   SFRSYM    DATA     BYTE      SPCTL
      000000D8H.7 SFRSYM    DATA     BIT       CF
      000000F5H   SFRSYM    DATA     BYTE      PWMCR
      000000F9H   SFRSYM    DATA     BYTE      CH
      000000A2H   SFRSYM    DATA     BYTE      P_SW1
      000000BAH   SFRSYM    DATA     BYTE      P_SW2
      000000A8H.5 SFRSYM    DATA     BIT       EADC
      000000A8H   SFRSYM    DATA     BYTE      IE
      000000E9H   SFRSYM    DATA     BYTE      CL
      000000C5H   SFRSYM    DATA     BYTE      IAP_CMD
      000000FAH   SFRSYM    DATA     BYTE      CCAP0H
      000000FBH   SFRSYM    DATA     BYTE      CCAP1H
      000000FCH   SFRSYM    DATA     BYTE      CCAP2H
      000000BDH   SFRSYM    DATA     BYTE      ADC_RES
      000000EAH   SFRSYM    DATA     BYTE      CCAP0L
      000000D8H.6 SFRSYM    DATA     BIT       CR
      000000F7H   SFRSYM    DATA     BYTE      PWMFDCR
      000000EBH   SFRSYM    DATA     BYTE      CCAP1L
      000000DAH   SFRSYM    DATA     BYTE      CCAPM0
      000000ECH   SFRSYM    DATA     BYTE      CCAP2L
      000000DBH   SFRSYM    DATA     BYTE      CCAPM1
      000000DCH   SFRSYM    DATA     BYTE      CCAPM2
      000000A8H.4 SFRSYM    DATA     BIT       ES
      000000B8H.5 SFRSYM    DATA     BIT       PADC
      000000B8H   SFRSYM    DATA     BYTE      IP
      00000098H   SFRSYM    DATA     BIT       RI
      000000D0H.7 SFRSYM    DATA     BIT       CY
      00000098H.1 SFRSYM    DATA     BIT       TI
      00000097H   SFRSYM    DATA     BYTE      CLK_DIV
      000000C3H   SFRSYM    DATA     BYTE      IAP_ADDRH
      000000B8H.4 SFRSYM    DATA     BIT       PS
      00000081H   SFRSYM    DATA     BYTE      SP
      000000D9H   SFRSYM    DATA     BYTE      CMOD
      000000D8H   SFRSYM    DATA     BYTE      CCON
      000000C4H   SFRSYM    DATA     BYTE      IAP_ADDRL
      000000B8H.7 SFRSYM    DATA     BIT       PPCA
      000000D0H.2 SFRSYM    DATA     BIT       OV
      000000E6H   SFRSYM    DATA     BYTE      CMPCR1
      000000E7H   SFRSYM    DATA     BYTE      CMPCR2
      000000A8H.6 SFRSYM    DATA     BIT       ELVD
      00000080H   SFRSYM    DATA     BIT       P00
      000000BCH   SFRSYM    DATA     BYTE      ADC_CONTR
      00000099H   SFRSYM    DATA     BYTE      SBUF
      00000087H   SFRSYM    DATA     BYTE      PCON
      00000090H   SFRSYM    DATA     BIT       P10
      00000080H.1 SFRSYM    DATA     BIT       P01
      000000A0H   SFRSYM    DATA     BIT       P20
      00000090H.1 SFRSYM    DATA     BIT       P11
      00000080H.2 SFRSYM    DATA     BIT       P02
      000000B0H   SFRSYM    DATA     BIT       P30
      000000A0H.1 SFRSYM    DATA     BIT       P21
      00000090H.2 SFRSYM    DATA     BIT       P12
      00000080H.3 SFRSYM    DATA     BIT       P03
      00000098H   SFRSYM    DATA     BYTE      SCON
      000000C0H   SFRSYM    DATA     BIT       P40
      000000B0H.1 SFRSYM    DATA     BIT       P31
LX51 LINKER/LOCATER V4.66.1.0                                                         09/21/2015  00:52:51  PAGE 72


      000000A0H.2 SFRSYM    DATA     BIT       P22
      00000090H.3 SFRSYM    DATA     BIT       P13
      00000080H.4 SFRSYM    DATA     BIT       P04
      00000089H   SFRSYM    DATA     BYTE      TMOD
      00000088H   SFRSYM    DATA     BYTE      TCON
      000000C8H   SFRSYM    DATA     BIT       P50
      000000C0H.1 SFRSYM    DATA     BIT       P41
      000000B0H.2 SFRSYM    DATA     BIT       P32
      000000A0H.3 SFRSYM    DATA     BIT       P23
      00000090H.4 SFRSYM    DATA     BIT       P14
      00000080H.5 SFRSYM    DATA     BIT       P05
      000000E8H   SFRSYM    DATA     BIT       P60
      000000C8H.1 SFRSYM    DATA     BIT       P51
      000000C0H.2 SFRSYM    DATA     BIT       P42
      000000B0H.3 SFRSYM    DATA     BIT       P33
      000000A0H.4 SFRSYM    DATA     BIT       P24
      00000090H.5 SFRSYM    DATA     BIT       P15
      00000080H.6 SFRSYM    DATA     BIT       P06
      000000B8H.6 SFRSYM    DATA     BIT       PLVD
      000000F8H   SFRSYM    DATA     BIT       P70
      000000E8H.1 SFRSYM    DATA     BIT       P61
      000000C8H.2 SFRSYM    DATA     BIT       P52
      000000C0H.3 SFRSYM    DATA     BIT       P43
      000000B0H.4 SFRSYM    DATA     BIT       P34
      000000A0H.5 SFRSYM    DATA     BIT       P25
      00000090H.6 SFRSYM    DATA     BIT       P16
      00000080H.7 SFRSYM    DATA     BIT       P07
      000000F8H.1 SFRSYM    DATA     BIT       P71
      000000E8H.2 SFRSYM    DATA     BIT       P62
      000000C8H.3 SFRSYM    DATA     BIT       P53
      000000C0H.4 SFRSYM    DATA     BIT       P44
      000000B0H.5 SFRSYM    DATA     BIT       P35
      000000A0H.6 SFRSYM    DATA     BIT       P26
      00000090H.7 SFRSYM    DATA     BIT       P17
      000000F8H.2 SFRSYM    DATA     BIT       P72
      000000E8H.3 SFRSYM    DATA     BIT       P63
      000000C8H.4 SFRSYM    DATA     BIT       P54
      000000C0H.5 SFRSYM    DATA     BIT       P45
      000000B0H.6 SFRSYM    DATA     BIT       P36
      000000A0H.7 SFRSYM    DATA     BIT       P27
      000000F8H.3 SFRSYM    DATA     BIT       P73
      000000E8H.4 SFRSYM    DATA     BIT       P64
      000000C8H.5 SFRSYM    DATA     BIT       P55
      000000C0H.6 SFRSYM    DATA     BIT       P46
      000000B0H.7 SFRSYM    DATA     BIT       P37
      000000F8H.4 SFRSYM    DATA     BIT       P74
      000000E8H.5 SFRSYM    DATA     BIT       P65
      000000C8H.6 SFRSYM    DATA     BIT       P56
      000000C0H.7 SFRSYM    DATA     BIT       P47
      000000F8H.5 SFRSYM    DATA     BIT       P75
      000000E8H.6 SFRSYM    DATA     BIT       P66
      000000C8H.7 SFRSYM    DATA     BIT       P57
      000000F8H.6 SFRSYM    DATA     BIT       P76
      000000E8H.7 SFRSYM    DATA     BIT       P67
      00000088H.1 SFRSYM    DATA     BIT       IE0
      000000A1H   SFRSYM    DATA     BYTE      BUS_SPEED
      000000F8H.7 SFRSYM    DATA     BIT       P77
      00000088H.3 SFRSYM    DATA     BIT       IE1
      000000AFH   SFRSYM    DATA     BYTE      IE2
      0000008EH   SFRSYM    DATA     BYTE      AUXR
      000000F0H   SFRSYM    DATA     BYTE      B
      000000C7H   SFRSYM    DATA     BYTE      IAP_CONTR
      000000F1H   SFRSYM    DATA     BYTE      PWMCFG
      000000E0H   SFRSYM    DATA     BYTE      ACC
      000000A8H.1 SFRSYM    DATA     BIT       ET0
LX51 LINKER/LOCATER V4.66.1.0                                                         09/21/2015  00:52:51  PAGE 73


      00000088H.5 SFRSYM    DATA     BIT       TF0
      000000A8H.3 SFRSYM    DATA     BIT       ET1
      00000088H.7 SFRSYM    DATA     BIT       TF1
      000000B5H   SFRSYM    DATA     BYTE      IP2
      00000098H.2 SFRSYM    DATA     BIT       RB8
      0000008CH   SFRSYM    DATA     BYTE      TH0
      0000008DH   SFRSYM    DATA     BYTE      TH1
      00000088H   SFRSYM    DATA     BIT       IT0
      000000A8H   SFRSYM    DATA     BIT       EX0
      00000098H.3 SFRSYM    DATA     BIT       TB8
      000000D6H   SFRSYM    DATA     BYTE      T2H
      00000088H.2 SFRSYM    DATA     BIT       IT1
      000000A8H.2 SFRSYM    DATA     BIT       EX1
      000000D4H   SFRSYM    DATA     BYTE      T3H
      000000D0H   SFRSYM    DATA     BIT       P
      00000098H.7 SFRSYM    DATA     BIT       SM0
      000000D2H   SFRSYM    DATA     BYTE      T4H
      0000008AH   SFRSYM    DATA     BYTE      TL0
      00000098H.6 SFRSYM    DATA     BIT       SM1
      0000008BH   SFRSYM    DATA     BYTE      TL1
      00000098H.5 SFRSYM    DATA     BIT       SM2
      000000D7H   SFRSYM    DATA     BYTE      T2L
      000000D5H   SFRSYM    DATA     BYTE      T3L
      000000D3H   SFRSYM    DATA     BYTE      T4L
      000000B8H.1 SFRSYM    DATA     BIT       PT0
      000000B8H.3 SFRSYM    DATA     BIT       PT1
      000000D0H.3 SFRSYM    DATA     BIT       RS0
      000000C2H   SFRSYM    DATA     BYTE      IAP_DATA
      00000088H.4 SFRSYM    DATA     BIT       TR0
      000000D0H.4 SFRSYM    DATA     BIT       RS1
      00000088H.6 SFRSYM    DATA     BIT       TR1
      000000C1H   SFRSYM    DATA     BYTE      WDT_CONTR
      000000B8H   SFRSYM    DATA     BIT       PX0
      000000B8H.2 SFRSYM    DATA     BIT       PX1
      000000F2H   SFRSYM    DATA     BYTE      PCA_PWM0
      000000F3H   SFRSYM    DATA     BYTE      PCA_PWM1
      000000F4H   SFRSYM    DATA     BYTE      PCA_PWM2
      0000009DH   SFRSYM    DATA     BYTE      P1ASF
      00000083H   SFRSYM    DATA     BYTE      DPH
      000000D1H   SFRSYM    DATA     BYTE      T3T4M
      000000D1H   SFRSYM    DATA     BYTE      T4T3M
      000000BEH   SFRSYM    DATA     BYTE      ADC_RESL
      00000082H   SFRSYM    DATA     BYTE      DPL
      000000CDH   SFRSYM    DATA     BYTE      SPSTAT
      0000009BH   SFRSYM    DATA     BYTE      S2BUF
      00000097H   SFRSYM    DATA     BYTE      PCON2
      000000ADH   SFRSYM    DATA     BYTE      S3BUF
      00000085H   SFRSYM    DATA     BYTE      S4BUF
      00000098H.4 SFRSYM    DATA     BIT       REN
      0000009AH   SFRSYM    DATA     BYTE      S2CON
      000000ACH   SFRSYM    DATA     BYTE      S3CON
      00000084H   SFRSYM    DATA     BYTE      S4CON
      000000B9H   SFRSYM    DATA     BYTE      SADEN
      000000A9H   SFRSYM    DATA     BYTE      SADDR
      000000C6H   SFRSYM    DATA     BYTE      IAP_TRIG
      000000A2H   SFRSYM    DATA     BYTE      AUXR1
      000000D0H.5 SFRSYM    DATA     BIT       F0
      0000008FH   SFRSYM    DATA     BYTE      INT_CLKO
      000000D0H   SFRSYM    DATA     BYTE      PSW
      000000D8H   SFRSYM    DATA     BIT       CCF0
      000000D8H.1 SFRSYM    DATA     BIT       CCF1
      000000CFH   SFRSYM    DATA     BYTE      SPDAT
      00000094H   SFRSYM    DATA     BYTE      P0M0

      01002C0EH   BLOCK     CODE     ---       LVL=0
LX51 LINKER/LOCATER V4.66.1.0                                                         09/21/2015  00:52:51  PAGE 74


      00000007H   SYMBOL    DATA     BYTE      interruptNum
      01002C0EH   LINE      CODE     ---       #3
      01002C0EH   LINE      CODE     ---       #4
      01002C0EH   LINE      CODE     ---       #5
      01002C39H   LINE      CODE     ---       #6
      01002C39H   LINE      CODE     ---       #7
      01002C39H   LINE      CODE     ---       #8
      01002C3BH   LINE      CODE     ---       #9
      01002C3CH   LINE      CODE     ---       #10
      01002C3CH   LINE      CODE     ---       #11
      01002C3EH   LINE      CODE     ---       #12
      01002C3FH   LINE      CODE     ---       #13
      01002C3FH   LINE      CODE     ---       #14
      01002C41H   LINE      CODE     ---       #15
      01002C42H   LINE      CODE     ---       #16
      01002C42H   LINE      CODE     ---       #17
      01002C44H   LINE      CODE     ---       #18
      01002C45H   LINE      CODE     ---       #19
      01002C45H   LINE      CODE     ---       #20
      01002C47H   LINE      CODE     ---       #21
      01002C48H   LINE      CODE     ---       #22
      01002C48H   LINE      CODE     ---       #23
      01002C4AH   LINE      CODE     ---       #24
      01002C4BH   LINE      CODE     ---       #25
      01002C4BH   LINE      CODE     ---       #26
      01002C4DH   LINE      CODE     ---       #27
      01002C4EH   LINE      CODE     ---       #28
      01002C4EH   LINE      CODE     ---       #29
      01002C50H   LINE      CODE     ---       #30
      01002C51H   LINE      CODE     ---       #31
      01002C51H   LINE      CODE     ---       #32
      01002C54H   LINE      CODE     ---       #33
      01002C55H   LINE      CODE     ---       #34
      01002C55H   LINE      CODE     ---       #35
      01002C58H   LINE      CODE     ---       #36
      01002C58H   LINE      CODE     ---       #37
      01002C58H   LINE      CODE     ---       #38
      01002C58H   LINE      CODE     ---       #39
      01002C58H   LINE      CODE     ---       #40
      ---         BLOCKEND  ---      ---       LVL=0
      00000007H   SYMBOL    DATA     BYTE      interruptNum
      00000007H   SYMBOL    DATA     BYTE      interruptNum
      00000005H   SYMBOL    DATA     BYTE      mode
      00000007H   SYMBOL    DATA     BYTE      interruptNum

      01002E62H   BLOCK     CODE     ---       LVL=0
      00000006H   SYMBOL    DATA     WORD      time
      01002E62H   BLOCK     CODE     NEAR LAB  LVL=1
      00000007H   SYMBOL    DATA     BYTE      TH0_TEMP
      00000006H   SYMBOL    DATA     BYTE      TL0_TEMP
      00000004H   SYMBOL    DATA     WORD      TIM_Value
      ---         BLOCKEND  ---      ---       LVL=1
      01002E62H   LINE      CODE     ---       #126
      01002E62H   LINE      CODE     ---       #127
      01002E62H   LINE      CODE     ---       #130
      01002E64H   LINE      CODE     ---       #131
      01002E66H   LINE      CODE     ---       #133
      01002E69H   LINE      CODE     ---       #134
      01002E6CH   LINE      CODE     ---       #135
      01002E6FH   LINE      CODE     ---       #137
      01002E72H   LINE      CODE     ---       #138
      01002E90H   LINE      CODE     ---       #139
      01002E90H   LINE      CODE     ---       #140
      01002E92H   LINE      CODE     ---       #141
      01002E94H   LINE      CODE     ---       #142
LX51 LINKER/LOCATER V4.66.1.0                                                         09/21/2015  00:52:51  PAGE 75


      01002E98H   LINE      CODE     ---       #143
      01002E9AH   LINE      CODE     ---       #144
      ---         BLOCKEND  ---      ---       LVL=0
      00000006H   SYMBOL    DATA     WORD      time
      00000007H   SYMBOL    DATA     BYTE      TH1_TEMP
      00000006H   SYMBOL    DATA     BYTE      TL1_TEMP
      00000004H   SYMBOL    DATA     WORD      TIM_Value
      00000006H   SYMBOL    DATA     WORD      time
      00000007H   SYMBOL    DATA     BYTE      TH2_TEMP
      00000006H   SYMBOL    DATA     BYTE      TL2_TEMP
      00000004H   SYMBOL    DATA     WORD      TIM_Value
      00000006H   SYMBOL    DATA     WORD      time
      00000007H   SYMBOL    DATA     BYTE      TH3_TEMP
      00000006H   SYMBOL    DATA     BYTE      TL3_TEMP
      00000004H   SYMBOL    DATA     WORD      TIM_Value
      00000006H   SYMBOL    DATA     WORD      time
      00000007H   SYMBOL    DATA     BYTE      TH4_TEMP
      00000006H   SYMBOL    DATA     BYTE      TL4_TEMP
      00000004H   SYMBOL    DATA     WORD      TIM_Value

      ---         MODULE    ---      ---       MENU
      01002E28H   PUBLIC    CODE     ---       _clear_gb
      0100307AH   PUBLIC    CODE     ---       _display_gb
      000000D8H.2 SFRSYM    DATA     BIT       CCF2
      00000092H   SFRSYM    DATA     BYTE      P1M0
      00000093H   SFRSYM    DATA     BYTE      P0M1
      00000096H   SFRSYM    DATA     BYTE      P2M0
      00000091H   SFRSYM    DATA     BYTE      P1M1
      00000080H   SFRSYM    DATA     BYTE      P0
      000000B2H   SFRSYM    DATA     BYTE      P3M0
      00000095H   SFRSYM    DATA     BYTE      P2M1
      00000090H   SFRSYM    DATA     BYTE      P1
      000000B4H   SFRSYM    DATA     BYTE      P4M0
      000000B1H   SFRSYM    DATA     BYTE      P3M1
      000000A0H   SFRSYM    DATA     BYTE      P2
      000000ABH   SFRSYM    DATA     BYTE      WKTCH
      000000CAH   SFRSYM    DATA     BYTE      P5M0
      000000B3H   SFRSYM    DATA     BYTE      P4M1
      000000B0H   SFRSYM    DATA     BYTE      P3
      000000CCH   SFRSYM    DATA     BYTE      P6M0
      000000C9H   SFRSYM    DATA     BYTE      P5M1
      000000C0H   SFRSYM    DATA     BYTE      P4
      000000D0H.6 SFRSYM    DATA     BIT       AC
      000000F6H   SFRSYM    DATA     BYTE      PWMIF
      000000E2H   SFRSYM    DATA     BYTE      P7M0
      000000CBH   SFRSYM    DATA     BYTE      P6M1
      000000C8H   SFRSYM    DATA     BYTE      P5
      000000A8H.7 SFRSYM    DATA     BIT       EA
      000000E1H   SFRSYM    DATA     BYTE      P7M1
      000000E8H   SFRSYM    DATA     BYTE      P6
      000000AAH   SFRSYM    DATA     BYTE      WKTCL
      000000F8H   SFRSYM    DATA     BYTE      P7
      000000CEH   SFRSYM    DATA     BYTE      SPCTL
      00000090H.3 SFRSYM    DATA     BIT       Rom_OUT
      000000D8H.7 SFRSYM    DATA     BIT       CF
      000000F5H   SFRSYM    DATA     BYTE      PWMCR
      000000F9H   SFRSYM    DATA     BYTE      CH
      000000A2H   SFRSYM    DATA     BYTE      P_SW1
      000000BAH   SFRSYM    DATA     BYTE      P_SW2
      000000A8H.5 SFRSYM    DATA     BIT       EADC
      000000A8H   SFRSYM    DATA     BYTE      IE
      000000E9H   SFRSYM    DATA     BYTE      CL
      000000C5H   SFRSYM    DATA     BYTE      IAP_CMD
      000000FAH   SFRSYM    DATA     BYTE      CCAP0H
      000000FBH   SFRSYM    DATA     BYTE      CCAP1H
LX51 LINKER/LOCATER V4.66.1.0                                                         09/21/2015  00:52:51  PAGE 76


      000000FCH   SFRSYM    DATA     BYTE      CCAP2H
      000000BDH   SFRSYM    DATA     BYTE      ADC_RES
      000000EAH   SFRSYM    DATA     BYTE      CCAP0L
      000000D8H.6 SFRSYM    DATA     BIT       CR
      000000F7H   SFRSYM    DATA     BYTE      PWMFDCR
      000000EBH   SFRSYM    DATA     BYTE      CCAP1L
      000000DAH   SFRSYM    DATA     BYTE      CCAPM0
      000000ECH   SFRSYM    DATA     BYTE      CCAP2L
      000000DBH   SFRSYM    DATA     BYTE      CCAPM1
      000000DCH   SFRSYM    DATA     BYTE      CCAPM2
      000000A8H.4 SFRSYM    DATA     BIT       ES
      000000B8H.5 SFRSYM    DATA     BIT       PADC
      000000B8H   SFRSYM    DATA     BYTE      IP
      00000098H   SFRSYM    DATA     BIT       RI
      000000D0H.7 SFRSYM    DATA     BIT       CY
      00000098H.1 SFRSYM    DATA     BIT       TI
      00000097H   SFRSYM    DATA     BYTE      CLK_DIV
      000000C3H   SFRSYM    DATA     BYTE      IAP_ADDRH
      000000B8H.4 SFRSYM    DATA     BIT       PS
      00000081H   SFRSYM    DATA     BYTE      SP
      000000D9H   SFRSYM    DATA     BYTE      CMOD
      000000D8H   SFRSYM    DATA     BYTE      CCON
      000000C4H   SFRSYM    DATA     BYTE      IAP_ADDRL
      000000B8H.7 SFRSYM    DATA     BIT       PPCA
      000000D0H.2 SFRSYM    DATA     BIT       OV
      00000090H.5 SFRSYM    DATA     BIT       Rom_CS
      00000090H.2 SFRSYM    DATA     BIT       Rom_IN
      000000E6H   SFRSYM    DATA     BYTE      CMPCR1
      000000E7H   SFRSYM    DATA     BYTE      CMPCR2
      000000A8H.6 SFRSYM    DATA     BIT       ELVD
      00000080H   SFRSYM    DATA     BIT       P00
      000000BCH   SFRSYM    DATA     BYTE      ADC_CONTR
      00000099H   SFRSYM    DATA     BYTE      SBUF
      00000087H   SFRSYM    DATA     BYTE      PCON
      00000090H   SFRSYM    DATA     BIT       P10
      00000080H.1 SFRSYM    DATA     BIT       P01
      000000A0H   SFRSYM    DATA     BIT       P20
      00000090H.1 SFRSYM    DATA     BIT       P11
      00000080H.2 SFRSYM    DATA     BIT       P02
      000000B0H   SFRSYM    DATA     BIT       P30
      000000A0H.1 SFRSYM    DATA     BIT       P21
      00000090H.2 SFRSYM    DATA     BIT       P12
      00000080H.3 SFRSYM    DATA     BIT       P03
      00000098H   SFRSYM    DATA     BYTE      SCON
      000000C0H   SFRSYM    DATA     BIT       P40
      000000B0H.1 SFRSYM    DATA     BIT       P31
      000000A0H.2 SFRSYM    DATA     BIT       P22
      00000090H.3 SFRSYM    DATA     BIT       P13
      00000080H.4 SFRSYM    DATA     BIT       P04
      00000089H   SFRSYM    DATA     BYTE      TMOD
      00000088H   SFRSYM    DATA     BYTE      TCON
      000000C8H   SFRSYM    DATA     BIT       P50
      000000C0H.1 SFRSYM    DATA     BIT       P41
      000000B0H.2 SFRSYM    DATA     BIT       P32
      000000A0H.3 SFRSYM    DATA     BIT       P23
      00000090H.4 SFRSYM    DATA     BIT       P14
      00000080H.5 SFRSYM    DATA     BIT       P05
      000000E8H   SFRSYM    DATA     BIT       P60
      000000C8H.1 SFRSYM    DATA     BIT       P51
      000000C0H.2 SFRSYM    DATA     BIT       P42
      000000B0H.3 SFRSYM    DATA     BIT       P33
      000000A0H.4 SFRSYM    DATA     BIT       P24
      00000090H.5 SFRSYM    DATA     BIT       P15
      00000080H.6 SFRSYM    DATA     BIT       P06
      000000B8H.6 SFRSYM    DATA     BIT       PLVD
LX51 LINKER/LOCATER V4.66.1.0                                                         09/21/2015  00:52:51  PAGE 77


      000000F8H   SFRSYM    DATA     BIT       P70
      000000E8H.1 SFRSYM    DATA     BIT       P61
      000000C8H.2 SFRSYM    DATA     BIT       P52
      000000C0H.3 SFRSYM    DATA     BIT       P43
      000000B0H.4 SFRSYM    DATA     BIT       P34
      000000A0H.5 SFRSYM    DATA     BIT       P25
      00000090H.6 SFRSYM    DATA     BIT       P16
      00000080H.7 SFRSYM    DATA     BIT       P07
      000000F8H.1 SFRSYM    DATA     BIT       P71
      000000E8H.2 SFRSYM    DATA     BIT       P62
      000000C8H.3 SFRSYM    DATA     BIT       P53
      000000C0H.4 SFRSYM    DATA     BIT       P44
      000000B0H.5 SFRSYM    DATA     BIT       P35
      000000A0H.6 SFRSYM    DATA     BIT       P26
      00000090H.7 SFRSYM    DATA     BIT       P17
      000000F8H.2 SFRSYM    DATA     BIT       P72
      000000E8H.3 SFRSYM    DATA     BIT       P63
      000000C8H.4 SFRSYM    DATA     BIT       P54
      000000C0H.5 SFRSYM    DATA     BIT       P45
      000000B0H.6 SFRSYM    DATA     BIT       P36
      000000A0H.7 SFRSYM    DATA     BIT       P27
      000000F8H.3 SFRSYM    DATA     BIT       P73
      000000E8H.4 SFRSYM    DATA     BIT       P64
      000000C8H.5 SFRSYM    DATA     BIT       P55
      000000C0H.6 SFRSYM    DATA     BIT       P46
      000000B0H.7 SFRSYM    DATA     BIT       P37
      000000F8H.4 SFRSYM    DATA     BIT       P74
      000000E8H.5 SFRSYM    DATA     BIT       P65
      000000C8H.6 SFRSYM    DATA     BIT       P56
      000000C0H.7 SFRSYM    DATA     BIT       P47
      000000F8H.5 SFRSYM    DATA     BIT       P75
      000000E8H.6 SFRSYM    DATA     BIT       P66
      000000C8H.7 SFRSYM    DATA     BIT       P57
      000000F8H.6 SFRSYM    DATA     BIT       P76
      000000E8H.7 SFRSYM    DATA     BIT       P67
      00000088H.1 SFRSYM    DATA     BIT       IE0
      000000A1H   SFRSYM    DATA     BYTE      BUS_SPEED
      000000F8H.7 SFRSYM    DATA     BIT       P77
      00000088H.3 SFRSYM    DATA     BIT       IE1
      000000AFH   SFRSYM    DATA     BYTE      IE2
      0000008EH   SFRSYM    DATA     BYTE      AUXR
      000000F0H   SFRSYM    DATA     BYTE      B
      000000C7H   SFRSYM    DATA     BYTE      IAP_CONTR
      000000F1H   SFRSYM    DATA     BYTE      PWMCFG
      000000E0H   SFRSYM    DATA     BYTE      ACC
      000000A8H.1 SFRSYM    DATA     BIT       ET0
      00000088H.5 SFRSYM    DATA     BIT       TF0
      000000A8H.3 SFRSYM    DATA     BIT       ET1
      00000088H.7 SFRSYM    DATA     BIT       TF1
      000000B5H   SFRSYM    DATA     BYTE      IP2
      00000098H.2 SFRSYM    DATA     BIT       RB8
      0000008CH   SFRSYM    DATA     BYTE      TH0
      0000008DH   SFRSYM    DATA     BYTE      TH1
      00000088H   SFRSYM    DATA     BIT       IT0
      000000A8H   SFRSYM    DATA     BIT       EX0
      00000098H.3 SFRSYM    DATA     BIT       TB8
      000000D6H   SFRSYM    DATA     BYTE      T2H
      00000088H.2 SFRSYM    DATA     BIT       IT1
      000000A8H.2 SFRSYM    DATA     BIT       EX1
      000000D4H   SFRSYM    DATA     BYTE      T3H
      000000D0H   SFRSYM    DATA     BIT       P
      00000098H.7 SFRSYM    DATA     BIT       SM0
      000000D2H   SFRSYM    DATA     BYTE      T4H
      0000008AH   SFRSYM    DATA     BYTE      TL0
      00000098H.6 SFRSYM    DATA     BIT       SM1
LX51 LINKER/LOCATER V4.66.1.0                                                         09/21/2015  00:52:51  PAGE 78


      0000008BH   SFRSYM    DATA     BYTE      TL1
      00000098H.5 SFRSYM    DATA     BIT       SM2
      000000D7H   SFRSYM    DATA     BYTE      T2L
      000000D5H   SFRSYM    DATA     BYTE      T3L
      000000D3H   SFRSYM    DATA     BYTE      T4L
      000000B8H.1 SFRSYM    DATA     BIT       PT0
      000000B8H.3 SFRSYM    DATA     BIT       PT1
      000000D0H.3 SFRSYM    DATA     BIT       RS0
      000000C2H   SFRSYM    DATA     BYTE      IAP_DATA
      00000088H.4 SFRSYM    DATA     BIT       TR0
      000000D0H.4 SFRSYM    DATA     BIT       RS1
      00000088H.6 SFRSYM    DATA     BIT       TR1
      000000C1H   SFRSYM    DATA     BYTE      WDT_CONTR
      000000B8H   SFRSYM    DATA     BIT       PX0
      000000B8H.2 SFRSYM    DATA     BIT       PX1
      000000F2H   SFRSYM    DATA     BYTE      PCA_PWM0
      000000F3H   SFRSYM    DATA     BYTE      PCA_PWM1
      000000F4H   SFRSYM    DATA     BYTE      PCA_PWM2
      0000009DH   SFRSYM    DATA     BYTE      P1ASF
      00000083H   SFRSYM    DATA     BYTE      DPH
      000000D1H   SFRSYM    DATA     BYTE      T3T4M
      000000D1H   SFRSYM    DATA     BYTE      T4T3M
      000000BEH   SFRSYM    DATA     BYTE      ADC_RESL
      00000082H   SFRSYM    DATA     BYTE      DPL
      000000CDH   SFRSYM    DATA     BYTE      SPSTAT
      0000009BH   SFRSYM    DATA     BYTE      S2BUF
      00000097H   SFRSYM    DATA     BYTE      PCON2
      000000ADH   SFRSYM    DATA     BYTE      S3BUF
      00000085H   SFRSYM    DATA     BYTE      S4BUF
      00000098H.4 SFRSYM    DATA     BIT       REN
      0000009AH   SFRSYM    DATA     BYTE      S2CON
      000000ACH   SFRSYM    DATA     BYTE      S3CON
      00000084H   SFRSYM    DATA     BYTE      S4CON
      000000B9H   SFRSYM    DATA     BYTE      SADEN
      000000A9H   SFRSYM    DATA     BYTE      SADDR
      00000090H.4 SFRSYM    DATA     BIT       Rom_SCK
      000000C6H   SFRSYM    DATA     BYTE      IAP_TRIG
      000000A2H   SFRSYM    DATA     BYTE      AUXR1
      000000D0H.5 SFRSYM    DATA     BIT       F0
      0000008FH   SFRSYM    DATA     BYTE      INT_CLKO
      000000D0H   SFRSYM    DATA     BYTE      PSW
      000000D8H   SFRSYM    DATA     BIT       CCF0
      000000D8H.1 SFRSYM    DATA     BIT       CCF1
      000000CFH   SFRSYM    DATA     BYTE      SPDAT
      00000094H   SFRSYM    DATA     BYTE      P0M0

      0100307AH   BLOCK     CODE     ---       LVL=0
      00000007H   SYMBOL    DATA     BYTE      page
      0100307AH   LINE      CODE     ---       #30
      0100307AH   LINE      CODE     ---       #31
      0100307AH   LINE      CODE     ---       #33
      ---         BLOCKEND  ---      ---       LVL=0

      01002E28H   BLOCK     CODE     ---       LVL=0
      0200012EH   SYMBOL    XDATA    BYTE      page
      01002E2DH   BLOCK     CODE     NEAR LAB  LVL=1
      0200012FH   SYMBOL    XDATA    BYTE      k
      ---         BLOCKEND  ---      ---       LVL=1
      01002E28H   LINE      CODE     ---       #36
      01002E2DH   LINE      CODE     ---       #37
      01002E2DH   LINE      CODE     ---       #39
      01002E3BH   LINE      CODE     ---       #40
      01002E3BH   LINE      CODE     ---       #41
      01002E43H   LINE      CODE     ---       #42
      01002E48H   LINE      CODE     ---       #43
LX51 LINKER/LOCATER V4.66.1.0                                                         09/21/2015  00:52:51  PAGE 79


      01002E54H   LINE      CODE     ---       #44
      01002E59H   LINE      CODE     ---       #45
      01002E61H   LINE      CODE     ---       #47
      ---         BLOCKEND  ---      ---       LVL=0

      ---         MODULE    ---      ---       ?C?FPADD
      0100009DH   PUBLIC    CODE     ---       ?C?FPADD
      01000099H   PUBLIC    CODE     ---       ?C?FPSUB

      ---         MODULE    ---      ---       ?C?FPDIV
      01000191H   PUBLIC    CODE     ---       ?C?FPDIV

      ---         MODULE    ---      ---       ?C?FCAST
      01000238H   PUBLIC    CODE     ---       ?C?FCASTC
      01000233H   PUBLIC    CODE     ---       ?C?FCASTI
      0100022EH   PUBLIC    CODE     ---       ?C?FCASTL

      ---         MODULE    ---      ---       ?C?CASTF
      0100026CH   PUBLIC    CODE     ---       ?C?CASTF

      ---         MODULE    ---      ---       PRINTF
      0200013EH   PUBLIC    XDATA    ---       ?_PRINTF?BYTE
      0200013EH   PUBLIC    XDATA    ---       ?_SPRINTF?BYTE
      01000A4BH   PUBLIC    CODE     ---       _PRINTF
      01000A45H   PUBLIC    CODE     ---       _SPRINTF

      ---         MODULE    ---      ---       ?C?FPGETOPN
      010002A3H   PUBLIC    CODE     ---       ?C?FPGETOPN2
      010002D8H   PUBLIC    CODE     ---       ?C?FPNANRESULT
      010002E2H   PUBLIC    CODE     ---       ?C?FPOVERFLOW
      010002BAH   PUBLIC    CODE     ---       ?C?FPRESULT
      010002CEH   PUBLIC    CODE     ---       ?C?FPRESULT2
      010002DFH   PUBLIC    CODE     ---       ?C?FPUNDERFLOW

      ---         MODULE    ---      ---       ?C?FPROUND
      010002EDH   PUBLIC    CODE     ---       ?C?FPROUND

      ---         MODULE    ---      ---       ?C?FPCONVERT
      0100032AH   PUBLIC    CODE     ---       ?C?FPCONVERT

      ---         MODULE    ---      ---       ?C?FPMUL
      0100042FH   PUBLIC    CODE     ---       ?C?FPMUL

      ---         MODULE    ---      ---       ?C?FTNPWR
      01000565H   PUBLIC    CODE     ---       ?C?FTNPWR

      ---         MODULE    ---      ---       ?C_INIT
      01002807H   PUBLIC    CODE     ---       ?C_START

      ---         MODULE    ---      ---       ?C?COPY
      01000675H   PUBLIC    CODE     ---       ?C?COPY

      ---         MODULE    ---      ---       ?C?CLDPTR
      0100069BH   PUBLIC    CODE     ---       ?C?CLDPTR

      ---         MODULE    ---      ---       ?C?CLDOPTR
      010006B4H   PUBLIC    CODE     ---       ?C?CLDOPTR

      ---         MODULE    ---      ---       ?C?CSTPTR
      010006E1H   PUBLIC    CODE     ---       ?C?CSTPTR

      ---         MODULE    ---      ---       ?C?CSTOPTR
      010006F3H   PUBLIC    CODE     ---       ?C?CSTOPTR

      ---         MODULE    ---      ---       ?C?IMUL
LX51 LINKER/LOCATER V4.66.1.0                                                         09/21/2015  00:52:51  PAGE 80


      01000715H   PUBLIC    CODE     ---       ?C?IMUL

      ---         MODULE    ---      ---       ?C?SIDIV
      01000727H   PUBLIC    CODE     ---       ?C?SIDIV

      ---         MODULE    ---      ---       ?C?IILDX
      0100075DH   PUBLIC    CODE     ---       ?C?IILDX

      ---         MODULE    ---      ---       ?C?ILDIX
      01000773H   PUBLIC    CODE     ---       ?C?ILDIX

      ---         MODULE    ---      ---       ?C?LMUL
      01000789H   PUBLIC    CODE     ---       ?C?LMUL

      ---         MODULE    ---      ---       ?C?ULDIV
      01000814H   PUBLIC    CODE     ---       ?C?ULDIV

      ---         MODULE    ---      ---       ?C?SLDIV
      01002CE7H   PUBLIC    CODE     ---       ?C?SLDIV

      ---         MODULE    ---      ---       ?C?LNEG
      010008A6H   PUBLIC    CODE     ---       ?C?LNEG

      ---         MODULE    ---      ---       ?C?ULCMP
      010008B4H   PUBLIC    CODE     ---       ?C?ULCMP

      ---         MODULE    ---      ---       ?C?ULSHR
      010008C5H   PUBLIC    CODE     ---       ?C?ULSHR

      ---         MODULE    ---      ---       ?C?LILDXDATA
      010008E1H   PUBLIC    CODE     ---       ?C?LILDXDATA
      010008D8H   PUBLIC    CODE     ---       ?C?LILDXDATA1
      010008DAH   PUBLIC    CODE     ---       ?C?LILDXDATA8

      ---         MODULE    ---      ---       ?C?LSTXDATA
      0100090DH   PUBLIC    CODE     ---       ?C?LSTXDATA

      ---         MODULE    ---      ---       ?C?PLDIXDATA
      01000919H   PUBLIC    CODE     ---       ?C?PLDIXDATA

      ---         MODULE    ---      ---       ?C?PSTXDATA
      01000930H   PUBLIC    CODE     ---       ?C?PSTXDATA

      ---         MODULE    ---      ---       ?C?CCASE
      01000939H   PUBLIC    CODE     ---       ?C?CCASE

      ---         MODULE    ---      ---       ?C?MEMSET
      0100095FH   PUBLIC    CODE     ---       ?C?MEMSET

      ---         MODULE    ---      ---       ?C?UIDIV
      0100098BH   PUBLIC    CODE     ---       ?C?UIDIV



*** WARNING L15: MULTIPLE CALL TO FUNCTION
    NAME:    _SPI_WRITE_BUF/NRF24L01
    CALLER1: ?C_C51STARTUP
    CALLER2: TIMER0_INT/DEMO

Program Size: data=44.5 xdata=379 const=1786 code=12480
LX51 RUN COMPLETE.  1 WARNING(S),  0 ERROR(S)
